Archive member included because of file (symbol)

C:\nxp\bstudio_nxp\sdk\JN-SW-4163/Components/Library\libAppApi_JN516x.a(AppApi.o)
                              crd_coordinator.o (symbol from plugin) (vAppApiSetHighPowerMode)
C:\nxp\bstudio_nxp\sdk\JN-SW-4163/Components/Library\libAppApi_JN516x.a(AppApiSleep.o)
                              (vAppApiDefSaveMacSettings)
C:\nxp\bstudio_nxp\sdk\JN-SW-4163/Components/Library\libMAC_JN516x.a(mac_main.o)
                              AppApi.o (symbol from plugin) (MAC_pvCtor)
C:\nxp\bstudio_nxp\sdk\JN-SW-4163/Components/Library\libMAC_JN516x.a(mac_mcps.o)
                              AppApi.o (symbol from plugin) (MAC_vHandleMcpsReqRsp)
C:\nxp\bstudio_nxp\sdk\JN-SW-4163/Components/Library\libMAC_JN516x.a(mac_mlme.o)
                              AppApi.o (symbol from plugin) (MAC_vHandleMlmeReqRsp)
C:\nxp\bstudio_nxp\sdk\JN-SW-4163/Components/Library\libMAC_JN516x.a(mac_pib.o)
                              node.o (symbol from plugin) (MAC_psPibGetHandle)
C:\nxp\bstudio_nxp\sdk\JN-SW-4163/Components/Library\libMAC_JN516x.a(mac_pib_mlme.o)
                              mac_main.o (symbol from plugin) (mac_vPibSetDefaults)
C:\nxp\bstudio_nxp\sdk\JN-SW-4163/Components/Library\libMAC_JN516x.a(mac_pmic.o)
                              mac_main.o (symbol from plugin) (vPMICreset)
C:\nxp\bstudio_nxp\sdk\JN-SW-4163/Components/Library\libMAC_JN516x.a(mac_ind.o)
                              AppApi.o (symbol from plugin) (MAC_vRegisterMlmeDcfmIndCallbacks)
C:\nxp\bstudio_nxp\sdk\JN-SW-4163/Components/Library\libMAC_JN516x.a(mac_scan.o)
                              mac_main.o (symbol from plugin) (mac_eScanInit)
C:\nxp\bstudio_nxp\sdk\JN-SW-4163/Components/Library\libMAC_JN516x.a(mac_lp.o)
                              mac_pmic.o (symbol from plugin) (g_sLP)
C:\nxp\bstudio_nxp\sdk\JN-SW-4163/Components/Library\libMAC_JN516x.a(MCPS.o)
                              mac_mcps.o (symbol from plugin) (vTAM_MCPSdataRequest)
C:\nxp\bstudio_nxp\sdk\JN-SW-4163/Components/Library\libMAC_JN516x.a(phy_pib.o)
                              AppApi.o (symbol from plugin) (phy_ePibGet)
C:\nxp\bstudio_nxp\sdk\JN-SW-4163/Components/Library\libMAC_JN516x.a(TAM.o)
                              MCPS.o (symbol from plugin) (bTAMinPAN)
C:\nxp\bstudio_nxp\sdk\JN-SW-4163/Components/Library\libMAC_JN516x.a(TAMCO.o)
                              TAM.o (symbol from plugin) (vTAMCOsetCoordinator)
C:\nxp\bstudio_nxp\sdk\JN-SW-4163/Components/Library\libMAC_JN516x.a(TAMDE.o)
                              TAM.o (symbol from plugin) (vTAMDEdetermineNullState)
C:\nxp\bstudio_nxp\sdk\JN-SW-4163/Components/Library\libMAC_JN516x.a(TAM_MEM.o)
                              TAM.o (symbol from plugin) (vMEMreset)
C:\nxp\bstudio_nxp\sdk\JN-SW-4163/Components/Library\libMAC_JN516x.a(TAM_MLME.o)
                              mac_scan.o (symbol from plugin) (vMLMEbeaconNotify)
C:\nxp\bstudio_nxp\sdk\JN-SW-4163/Components/Library\libMAC_JN516x.a(TAM_TAH.o)
                              TAMCO.o (symbol from plugin) (vTAHsetCutOff)
C:\nxp\bstudio_nxp\sdk\JN-SW-4163/Components/Library\libMAC_JN516x.a(TAM_TAI.o)
                              TAM.o (symbol from plugin) (vTAIsetCapTime)
C:\nxp\bstudio_nxp\sdk\JN-SW-4163/Components/Library\libMAC_JN516x.a(TAM_TAT.o)
                              TAMDE.o (symbol from plugin) (vTATstartReceiveAt)
C:\nxp\bstudio_nxp\sdk\JN-SW-4163/Components/Library\libMAC_JN516x.a(TAMcommon.o)
                              mac_scan.o (symbol from plugin) (bTACassessBeaconForPayload)
C:\nxp\bstudio_nxp\sdk\JN-SW-4163/Components/Library\libMAC_JN516x.a(TAMevent.o)
                              mac_lp.o (symbol from plugin) (vTAMinsertEvent)
C:\nxp\bstudio_nxp\sdk\JN-SW-4163/Components/Library\libMAC_JN516x.a(TAMqueue.o)
                              TAMcommon.o (symbol from plugin) (vTAQaddToFifo)
C:\nxp\bstudio_nxp\sdk\JN-SW-4163/Components/Library\libMAC_JN516x.a(TAMrxEnable.o)
                              TAMevent.o (symbol from plugin) (vTAMRXEint2Fired)
C:\nxp\bstudio_nxp\sdk\JN-SW-4163/Components/Library\libMAC_JN516x.a(TAMsecurity.o)
                              TAMcommon.o (symbol from plugin) (vTSCgetIncomingInfo)
C:\nxp\bstudio_nxp\sdk\JN-SW-4163/Components/Library\libMAC_JN516x.a(TAMsideways.o)
                              mac_pmic.o (symbol from plugin) (eTAStransmitRequest)
C:\nxp\bstudio_nxp\sdk\JN-SW-4163/Components/Library\libMAC_JN516x.a(TAMtime.o)
                              TAM.o (symbol from plugin) (vTTIBLETimerExpired)
C:\nxp\bstudio_nxp\sdk\JN-SW-4163/Components/Library\libMAC_JN516x.a(TAM_AES.o)
                              TAMsecurity.o (symbol from plugin) (u8TAM_AES_WriteAuxilliarySecurityHeaderIntoBuffer)
C:\nxp\bstudio_nxp\sdk\JN-SW-4163/Components/Library\libMAC_JN516x.a(Endian.o)
                              TAM_AES.o (symbol from plugin) (vFromU16ToLe)
C:\nxp\bstudio_nxp\sdk\JN-SW-4163/Components/Library\libMAC_JN516x.a(mac_acl.o)
                              TAMsecurity.o (symbol from plugin) (MAC_u8AclFindInfo)
C:\nxp\bstudio_nxp\sdk\JN-SW-4163/Components/Library\libMAC_JN516x.a(mac_misc.o)
                              mac_mlme.o (symbol from plugin) (vMAC_MISCpollRequest)
C:\nxp\bstudio_nxp\sdk\JN-SW-4163/Components/Library\libTimerServer_JN516x.a(tsv_main.o)
                              AppApiSleep.o (symbol from plugin) (s_sTimerList)
C:\nxp\bstudio_nxp\sdk\JN-SW-4163/Components/Library\libXcv_JN516x.a(xcv_main.o)
                              AppApi.o (symbol from plugin) (XCV_vCtor)
C:\nxp\bstudio_nxp\sdk\JN-SW-4163/Components/Library\libXcv_JN516x.a(xcv_access.o)
                              mac_main.o (symbol from plugin) (XCV_vDevWriteIER)
C:\nxp\bstudio_nxp\sdk\JN-SW-4163/Components/Library\libXcv_JN516x.a(xcv_isr.o)
                              AppApi.o (symbol from plugin) (vXCV_IntHandlerPhy)
C:\nxp\bstudio_nxp\sdk\JN-SW-4163/Components/Library\libAes_JN516x.a(AES_CCM_Star.o)
                              TAM_AES.o (symbol from plugin) (vACI_OptimisedCcmStar)
C:\nxp\bstudio_nxp\sdk\JN-SW-4163/Components/Library\libAes_JN516x.a(AEScoprocessorAPI.o)
                              AES_CCM_Star.o (symbol from plugin) (vACI_CmdWaitBusy)
C:\nxp\bstudio_nxp\sdk\JN-SW-4163/Components/Library\libHardwareApi_JN516x.a(AHI_Analogue.o)
                              AppQueueApi.o (symbol from plugin) (vAHI_APRegisterCallback)
C:\nxp\bstudio_nxp\sdk\JN-SW-4163/Components/Library\libHardwareApi_JN516x.a(AHI_Dio.o)
                              crd_coordinator.o (symbol from plugin) (vAHI_DioSetDirection)
C:\nxp\bstudio_nxp\sdk\JN-SW-4163/Components/Library\libHardwareApi_JN516x.a(AHI_Reset.o)
                              QApp.o (symbol from plugin) (vAHI_SwReset)
C:\nxp\bstudio_nxp\sdk\JN-SW-4163/Components/Library\libHardwareApi_JN516x.a(AHI_Spi.o)
                              AppQueueApi.o (symbol from plugin) (vAHI_SpiRegisterCallback)
C:\nxp\bstudio_nxp\sdk\JN-SW-4163/Components/Library\libHardwareApi_JN516x.a(AHI_System.o)
                              AppApiSleep.o (symbol from plugin) (u8AHI_PowerStatus)
C:\nxp\bstudio_nxp\sdk\JN-SW-4163/Components/Library\libHardwareApi_JN516x.a(AHI_Timer.o)
                              crd_coordinator.o (symbol from plugin) (vAHI_TimerEnable)
C:\nxp\bstudio_nxp\sdk\JN-SW-4163/Components/Library\libHardwareApi_JN516x.a(AHI_TimerInt.o)
                              crd_coordinator.o (symbol from plugin) (vAHI_Timer0RegisterCallback)
C:\nxp\bstudio_nxp\sdk\JN-SW-4163/Components/Library\libHardwareApi_JN516x.a(AHI_Uart.o)
                              uart.o (symbol from plugin) (vAHI_UartSetBaudDivisor)
C:\nxp\bstudio_nxp\sdk\JN-SW-4163/Components/Library\libHardwareApi_JN516x.a(AHI_WakeTimer.o)
                              mac_lp.o (symbol from plugin) (vAHI_WakeTimerEnable)
C:\nxp\bstudio_nxp\sdk\JN-SW-4163/Components/Library\libHardwareApi_JN516x.a(AHI_Flash.o)
                              AHI_System.o (symbol from plugin) (vAHI_FlashAndEEPROMControllerIntHandler)
C:\nxp\bstudio_nxp\sdk\JN-SW-4163/Components/Library\libHardwareApi_JN516x.a(AHI_Infrared.o)
                              AHI_TimerInt.o (symbol from plugin) (vAHI_IntHandlerInfrared)
C:\nxp\bstudio_nxp\sdk\JN-SW-4163/Components/Library\libHardwareApi_JN516x.a(InternalFlashApi.o)
                              AHI_Flash.o (symbol from plugin) (bFlashErase)
C:\nxp\bstudio_nxp\sdk\JN-SW-4163/Components/Library\libHardwareApi_JN516x.a(EEP_EEPROM.o)
                              crd_coordinator.o (symbol from plugin) (u16AHI_InitialiseEEP)
C:\nxp\bstudio_nxp\sdk\JN-SW-4163/Components/Library\libHardwareApi_JN516x.a(AHI_Si.o)
                              AppQueueApi.o (symbol from plugin) (vAHI_SiRegisterCallback)
C:\nxp\bstudio_nxp\sdk\JN-SW-4163/Components/Library\libHardwareApi_JN516x.a(AHI_TickTimer.o)
                              AppQueueApi.o (symbol from plugin) (vAHI_TickTimerInit)
C:\nxp\bstudio_nxp\sdk\JN-SW-4163/Components/Library\libHardwareApi_JN516x.a(AHI_Interrupt.o)
                              AppApi.o (symbol from plugin) (vAHI_InterruptSetPriority)
C:\nxp\bstudio_nxp\sdk\JN-SW-4163/Components/Library\libHardwareApi_JN516x.a(AHI_Init.o)
                              crd_coordinator.o (symbol from plugin) (u32AHI_Init)
C:\nxp\bstudio_nxp\sdk\JN-SW-4163/Components/Library\libHardwareApi_JN516x.a(AHI_SpiSlave.o)
                              AHI_Init.o (symbol from plugin) (vAHI_IntHandlerSpiSlave)
C:\nxp\bstudio_nxp\sdk\JN-SW-4163/Components/Library\libMicroSpecific_JN516x.a(MicroInt_ba.o)
                              AppApi.o (symbol from plugin) (vMicroIntEnableOnly)
C:\nxp\bstudio_nxp\sdk\JN-SW-4163/Components/Library\libMicroSpecific_JN516x.a(MicroSyscall_ba.o)
                              AHI_Reset.o (symbol from plugin) (vMicroSyscall)
C:\nxp\bstudio_nxp\sdk\JN-SW-4163/Components/Library\libBoot_JN516x.a(Heap.o)
                              (u32HeapStart)
C:\nxp\bstudio_nxp\sdk\JN-SW-4163/Components/Library\libBoot_JN516x.a(ExceptionHandler.o)
                              (_exception_external_interrupt)
C:\nxp\bstudio_nxp\sdk\JN-SW-4163/Platform/DK4/Library\libBoardLib_JN516x.a(LcdDriver.o)
                              lcd.o (symbol from plugin) (vLcdClear)
C:\nxp\bstudio_nxp\sdk\JN-SW-4163/Platform/DK4/Library\libBoardLib_JN516x.a(LcdFont.o)
                              LcdDriver.o (symbol from plugin) (vLcdFontReset)
C:\nxp\bstudio_nxp\sdk\JN-SW-4163/Components/Library\libAppApi_JN516x.a(AppHousekeeping.o)
                              mac_scan.o (symbol from plugin) (sAppHousekeeping)
C:\nxp\bstudio_nxp\sdk\JN-SW-4163/Components/Library\libAes_JN516x.a(AEScoprocessorAPIinterrupts.o)
                              AHI_Init.o (symbol from plugin) (vACI_IntHandlerAes)
c:/nxp/bstudio_nxp/sdk/tools/ba-elf-ba2-r36379/bin/../lib/gcc/ba-elf/4.7.4/../../../../ba-elf/lib/mcpu_jn51xx_sizeopt\libc.a(lib_a-strtok.o)
                              QApp.o (symbol from plugin) (strtok)
c:/nxp/bstudio_nxp/sdk/tools/ba-elf-ba2-r36379/bin/../lib/gcc/ba-elf/4.7.4/../../../../ba-elf/lib/mcpu_jn51xx_sizeopt\libc.a(lib_a-strtok_r.o)
                              c:/nxp/bstudio_nxp/sdk/tools/ba-elf-ba2-r36379/bin/../lib/gcc/ba-elf/4.7.4/../../../../ba-elf/lib/mcpu_jn51xx_sizeopt\libc.a(lib_a-strtok.o) (__strtok_r)
c:/nxp/bstudio_nxp/sdk/tools/ba-elf-ba2-r36379/bin/../lib/gcc/ba-elf/4.7.4/../../../../ba-elf/lib/mcpu_jn51xx_sizeopt\libc.a(lib_a-impure.o)
                              c:/nxp/bstudio_nxp/sdk/tools/ba-elf-ba2-r36379/bin/../lib/gcc/ba-elf/4.7.4/../../../../ba-elf/lib/mcpu_jn51xx_sizeopt\libc.a(lib_a-strtok.o) (_impure_ptr)
c:/nxp/bstudio_nxp/sdk/tools/ba-elf-ba2-r36379/bin/../lib/gcc/ba-elf/4.7.4/../../../../ba-elf/lib/mcpu_jn51xx_sizeopt\libc.a(lib_a-memcmp.o)
                              C:\Users\K98David\AppData\Local\Temp\ccVZTc6e.ltrans0.ltrans.o (memcmp)
c:/nxp/bstudio_nxp/sdk/tools/ba-elf-ba2-r36379/bin/../lib/gcc/ba-elf/4.7.4/../../../../ba-elf/lib/mcpu_jn51xx_sizeopt\libc.a(lib_a-memcpy.o)
                              C:\Users\K98David\AppData\Local\Temp\ccVZTc6e.ltrans0.ltrans.o (memcpy)
c:/nxp/bstudio_nxp/sdk/tools/ba-elf-ba2-r36379/bin/../lib/gcc/ba-elf/4.7.4/../../../../ba-elf/lib/mcpu_jn51xx_sizeopt\libc.a(lib_a-memset.o)
                              C:\Users\K98David\AppData\Local\Temp\ccVZTc6e.ltrans0.ltrans.o (memset)
c:/nxp/bstudio_nxp/sdk/tools/ba-elf-ba2-r36379/bin/../lib/gcc/ba-elf/4.7.4/../../../../ba-elf/lib/mcpu_jn51xx_sizeopt\libc.a(lib_a-strcmp.o)
                              C:\Users\K98David\AppData\Local\Temp\ccVZTc6e.ltrans5.ltrans.o (strcmp)
c:/nxp/bstudio_nxp/sdk/tools/ba-elf-ba2-r36379/bin/../lib/gcc/ba-elf/4.7.4/../../../../ba-elf/lib/mcpu_jn51xx_sizeopt\libc.a(lib_a-strcpy.o)
                              C:\Users\K98David\AppData\Local\Temp\ccVZTc6e.ltrans1.ltrans.o (strcpy)
c:/nxp/bstudio_nxp/sdk/tools/ba-elf-ba2-r36379/bin/../lib/gcc/ba-elf/4.7.4/../../../../ba-elf/lib/mcpu_jn51xx_sizeopt\libc.a(lib_a-strlen.o)
                              C:\Users\K98David\AppData\Local\Temp\ccVZTc6e.ltrans5.ltrans.o (strlen)
c:/nxp/bstudio_nxp/sdk/tools/ba-elf-ba2-r36379/bin/../lib/gcc/ba-elf/4.7.4/../../../../ba-elf/lib/mcpu_jn51xx_sizeopt\libc.a(lib_a-strncmp.o)
                              C:\Users\K98David\AppData\Local\Temp\ccVZTc6e.ltrans5.ltrans.o (strncmp)
c:/nxp/bstudio_nxp/sdk/tools/ba-elf-ba2-r36379/bin/../lib/gcc/ba-elf/4.7.4/mcpu_jn51xx_sizeopt\libgcc.a(__udivsi3.o)
                              C:\Users\K98David\AppData\Local\Temp\ccVZTc6e.ltrans0.ltrans.o (__udivsi3)
c:/nxp/bstudio_nxp/sdk/tools/ba-elf-ba2-r36379/bin/../lib/gcc/ba-elf/4.7.4/mcpu_jn51xx_sizeopt\libgcc.a(__umodsi3.o)
                              C:\Users\K98David\AppData\Local\Temp\ccVZTc6e.ltrans10.ltrans.o (__umodsi3)

Allocating common symbols
Common symbol       size              file

apvHwIndBufferData  0x18              AppQueueApi.o (symbol from plugin)
prMAC_TofMlmeReqHandler
                    0x4               mac_mlme.o (symbol from plugin)
apvMlmeIndBufferData
                    0x18              AppQueueApi.o (symbol from plugin)
asMcpsIndBuffer     0x348             AppQueueApi.o (symbol from plugin)
OldsensorData_Count
                    0x50              Qsensor.o (symbol from plugin)
Temp                0x4               Qsensor.o (symbol from plugin)
g_tSpiConfiguration
                    0x4               AHI_Flash.o (symbol from plugin)
asHwIndBuffer       0x28              AppQueueApi.o (symbol from plugin)
u8TAM_TxStatusOverride
                    0x1               TAMevent.o (symbol from plugin)
prMAC_TofRxHandler  0x4               TAMcommon.o (symbol from plugin)
apvMlmeIndData      0x18              AppQueueApi.o (symbol from plugin)
au8Shadow           0x400             lcd.o (symbol from plugin)
apvMcpsIndData      0x18              AppQueueApi.o (symbol from plugin)
apvMcpsIndBufferData
                    0x18              AppQueueApi.o (symbol from plugin)
apvHwIndData        0x18              AppQueueApi.o (symbol from plugin)
bAHI_ExtendedTemperatureOperation
                    0x1               AHI_System.o (symbol from plugin)
bMAC_DiscardUnsuccessfulAssocResponses
                    0x1               mac_pmic.o (symbol from plugin)
u8Msq               0x1               TAM_TAT.o (symbol from plugin)
g_bLegacyHwBugEmulation
                    0x1               AES_CCM_Star.o (symbol from plugin)
asMlmeIndBuffer     0x44c             AppQueueApi.o (symbol from plugin)

Discarded input sections

 .text          0x0000000000000000        0x0 crd_coordinator.o (symbol from plugin)
 .data          0x0000000000000000        0x0 C:\Users\K98David\AppData\Local\Temp\ccVZTc6e.ltrans0.ltrans.o
 .data          0x0000000000000000        0x0 C:\Users\K98David\AppData\Local\Temp\ccVZTc6e.ltrans3.ltrans.o
 .data          0x0000000000000000        0x0 C:\Users\K98David\AppData\Local\Temp\ccVZTc6e.ltrans4.ltrans.o
 .data          0x0000000000000000        0x0 C:\Users\K98David\AppData\Local\Temp\ccVZTc6e.ltrans6.ltrans.o
 .data          0x0000000000000000        0x0 C:\Users\K98David\AppData\Local\Temp\ccVZTc6e.ltrans8.ltrans.o
 .data          0x0000000000000000        0x0 C:\Users\K98David\AppData\Local\Temp\ccVZTc6e.ltrans9.ltrans.o
 .data          0x0000000000000000        0x0 C:\Users\K98David\AppData\Local\Temp\ccVZTc6e.ltrans10.ltrans.o
 .data          0x0000000000000000        0x0 C:\Users\K98David\AppData\Local\Temp\ccVZTc6e.ltrans11.ltrans.o
 .data          0x0000000000000000        0x0 C:\Users\K98David\AppData\Local\Temp\ccVZTc6e.ltrans12.ltrans.o
 .bss           0x0000000000000000        0x0 C:\Users\K98David\AppData\Local\Temp\ccVZTc6e.ltrans12.ltrans.o
 .data          0x0000000000000000        0x0 C:\Users\K98David\AppData\Local\Temp\ccVZTc6e.ltrans13.ltrans.o
 .data          0x0000000000000000        0x0 C:\Users\K98David\AppData\Local\Temp\ccVZTc6e.ltrans14.ltrans.o
 .data          0x0000000000000000        0x0 C:\Users\K98David\AppData\Local\Temp\ccVZTc6e.ltrans16.ltrans.o
 .data          0x0000000000000000        0x0 c:/nxp/bstudio_nxp/sdk/tools/ba-elf-ba2-r36379/bin/../lib/gcc/ba-elf/4.7.4/../../../../ba-elf/lib/mcpu_jn51xx_sizeopt\libc.a(lib_a-memcmp.o)
 .bss           0x0000000000000000        0x0 c:/nxp/bstudio_nxp/sdk/tools/ba-elf-ba2-r36379/bin/../lib/gcc/ba-elf/4.7.4/../../../../ba-elf/lib/mcpu_jn51xx_sizeopt\libc.a(lib_a-memcmp.o)
 .data          0x0000000000000000        0x0 c:/nxp/bstudio_nxp/sdk/tools/ba-elf-ba2-r36379/bin/../lib/gcc/ba-elf/4.7.4/../../../../ba-elf/lib/mcpu_jn51xx_sizeopt\libc.a(lib_a-memcpy.o)
 .bss           0x0000000000000000        0x0 c:/nxp/bstudio_nxp/sdk/tools/ba-elf-ba2-r36379/bin/../lib/gcc/ba-elf/4.7.4/../../../../ba-elf/lib/mcpu_jn51xx_sizeopt\libc.a(lib_a-memcpy.o)
 .data          0x0000000000000000        0x0 c:/nxp/bstudio_nxp/sdk/tools/ba-elf-ba2-r36379/bin/../lib/gcc/ba-elf/4.7.4/../../../../ba-elf/lib/mcpu_jn51xx_sizeopt\libc.a(lib_a-memset.o)
 .bss           0x0000000000000000        0x0 c:/nxp/bstudio_nxp/sdk/tools/ba-elf-ba2-r36379/bin/../lib/gcc/ba-elf/4.7.4/../../../../ba-elf/lib/mcpu_jn51xx_sizeopt\libc.a(lib_a-memset.o)
 .data          0x0000000000000000        0x0 c:/nxp/bstudio_nxp/sdk/tools/ba-elf-ba2-r36379/bin/../lib/gcc/ba-elf/4.7.4/../../../../ba-elf/lib/mcpu_jn51xx_sizeopt\libc.a(lib_a-strcmp.o)
 .bss           0x0000000000000000        0x0 c:/nxp/bstudio_nxp/sdk/tools/ba-elf-ba2-r36379/bin/../lib/gcc/ba-elf/4.7.4/../../../../ba-elf/lib/mcpu_jn51xx_sizeopt\libc.a(lib_a-strcmp.o)
 .data          0x0000000000000000        0x0 c:/nxp/bstudio_nxp/sdk/tools/ba-elf-ba2-r36379/bin/../lib/gcc/ba-elf/4.7.4/../../../../ba-elf/lib/mcpu_jn51xx_sizeopt\libc.a(lib_a-strcpy.o)
 .bss           0x0000000000000000        0x0 c:/nxp/bstudio_nxp/sdk/tools/ba-elf-ba2-r36379/bin/../lib/gcc/ba-elf/4.7.4/../../../../ba-elf/lib/mcpu_jn51xx_sizeopt\libc.a(lib_a-strcpy.o)
 .data          0x0000000000000000        0x0 c:/nxp/bstudio_nxp/sdk/tools/ba-elf-ba2-r36379/bin/../lib/gcc/ba-elf/4.7.4/../../../../ba-elf/lib/mcpu_jn51xx_sizeopt\libc.a(lib_a-strlen.o)
 .bss           0x0000000000000000        0x0 c:/nxp/bstudio_nxp/sdk/tools/ba-elf-ba2-r36379/bin/../lib/gcc/ba-elf/4.7.4/../../../../ba-elf/lib/mcpu_jn51xx_sizeopt\libc.a(lib_a-strlen.o)
 .data          0x0000000000000000        0x0 c:/nxp/bstudio_nxp/sdk/tools/ba-elf-ba2-r36379/bin/../lib/gcc/ba-elf/4.7.4/../../../../ba-elf/lib/mcpu_jn51xx_sizeopt\libc.a(lib_a-strncmp.o)
 .bss           0x0000000000000000        0x0 c:/nxp/bstudio_nxp/sdk/tools/ba-elf-ba2-r36379/bin/../lib/gcc/ba-elf/4.7.4/../../../../ba-elf/lib/mcpu_jn51xx_sizeopt\libc.a(lib_a-strncmp.o)
 .data          0x0000000000000000        0x0 c:/nxp/bstudio_nxp/sdk/tools/ba-elf-ba2-r36379/bin/../lib/gcc/ba-elf/4.7.4/mcpu_jn51xx_sizeopt\libgcc.a(__udivsi3.o)
 .bss           0x0000000000000000        0x0 c:/nxp/bstudio_nxp/sdk/tools/ba-elf-ba2-r36379/bin/../lib/gcc/ba-elf/4.7.4/mcpu_jn51xx_sizeopt\libgcc.a(__udivsi3.o)
 .data          0x0000000000000000        0x0 c:/nxp/bstudio_nxp/sdk/tools/ba-elf-ba2-r36379/bin/../lib/gcc/ba-elf/4.7.4/mcpu_jn51xx_sizeopt\libgcc.a(__umodsi3.o)
 .bss           0x0000000000000000        0x0 c:/nxp/bstudio_nxp/sdk/tools/ba-elf-ba2-r36379/bin/../lib/gcc/ba-elf/4.7.4/mcpu_jn51xx_sizeopt\libgcc.a(__umodsi3.o)
 .text          0x0000000000000000        0x0 dbg.o (symbol from plugin)
 .text          0x0000000000000000        0x0 lcd.o (symbol from plugin)
 .text          0x0000000000000000        0x0 node.o (symbol from plugin)
 .text          0x0000000000000000        0x0 queue.o (symbol from plugin)
 .text          0x0000000000000000        0x0 rnd.o (symbol from plugin)
 .text          0x0000000000000000        0x0 uart.o (symbol from plugin)
 .text          0x0000000000000000        0x0 wuart.o (symbol from plugin)
 .text          0x0000000000000000        0x0 AppQueueApi.o (symbol from plugin)
 .text          0x0000000000000000        0x0 QApp.o (symbol from plugin)
 .text          0x0000000000000000        0x0 enddevice.o (symbol from plugin)
 .text          0x0000000000000000        0x0 Qsensor.o (symbol from plugin)
 .text          0x0000000000000000        0x0 QUtils.o (symbol from plugin)
 .text          0x0000000000000000        0x0 QEvent_Process.o (symbol from plugin)
 .text          0x0000000000000000        0x0 AppApi.o (symbol from plugin)
 .text          0x0000000000000000        0x0 AppApiSleep.o (symbol from plugin)
 .text          0x0000000000000000        0x0 mac_main.o (symbol from plugin)
 .text          0x0000000000000000        0x0 mac_mcps.o (symbol from plugin)
 .text          0x0000000000000000        0x0 mac_mlme.o (symbol from plugin)
 .text          0x0000000000000000        0x0 mac_pib.o (symbol from plugin)
 .text          0x0000000000000000        0x0 mac_pib_mlme.o (symbol from plugin)
 .text          0x0000000000000000        0x0 mac_pmic.o (symbol from plugin)
 .text          0x0000000000000000        0x0 mac_ind.o (symbol from plugin)
 .text          0x0000000000000000        0x0 mac_scan.o (symbol from plugin)
 .text          0x0000000000000000        0x0 mac_lp.o (symbol from plugin)
 .text          0x0000000000000000        0x0 MCPS.o (symbol from plugin)
 .text          0x0000000000000000        0x0 phy_pib.o (symbol from plugin)
 .text          0x0000000000000000        0x0 TAM.o (symbol from plugin)
 .text          0x0000000000000000        0x0 TAMCO.o (symbol from plugin)
 .text          0x0000000000000000        0x0 TAMDE.o (symbol from plugin)
 .text          0x0000000000000000        0x0 TAM_MEM.o (symbol from plugin)
 .text          0x0000000000000000        0x0 TAM_MLME.o (symbol from plugin)
 .text          0x0000000000000000        0x0 TAM_TAH.o (symbol from plugin)
 .text          0x0000000000000000        0x0 TAM_TAI.o (symbol from plugin)
 .text          0x0000000000000000        0x0 TAM_TAT.o (symbol from plugin)
 .text          0x0000000000000000        0x0 TAMcommon.o (symbol from plugin)
 .text          0x0000000000000000        0x0 TAMevent.o (symbol from plugin)
 .text          0x0000000000000000        0x0 TAMqueue.o (symbol from plugin)
 .text          0x0000000000000000        0x0 TAMrxEnable.o (symbol from plugin)
 .text          0x0000000000000000        0x0 TAMsecurity.o (symbol from plugin)
 .text          0x0000000000000000        0x0 TAMsideways.o (symbol from plugin)
 .text          0x0000000000000000        0x0 TAMtime.o (symbol from plugin)
 .text          0x0000000000000000        0x0 TAM_AES.o (symbol from plugin)
 .text          0x0000000000000000        0x0 Endian.o (symbol from plugin)
 .text          0x0000000000000000        0x0 mac_acl.o (symbol from plugin)
 .text          0x0000000000000000        0x0 mac_misc.o (symbol from plugin)
 .text          0x0000000000000000        0x0 tsv_main.o (symbol from plugin)
 .text          0x0000000000000000        0x0 xcv_main.o (symbol from plugin)
 .text          0x0000000000000000        0x0 xcv_access.o (symbol from plugin)
 .text          0x0000000000000000        0x0 xcv_isr.o (symbol from plugin)
 .text          0x0000000000000000        0x0 AES_CCM_Star.o (symbol from plugin)
 .text          0x0000000000000000        0x0 AEScoprocessorAPI.o (symbol from plugin)
 .text          0x0000000000000000        0x0 AHI_Analogue.o (symbol from plugin)
 .text          0x0000000000000000        0x0 AHI_Dio.o (symbol from plugin)
 .text          0x0000000000000000        0x0 AHI_Reset.o (symbol from plugin)
 .text          0x0000000000000000        0x0 AHI_Spi.o (symbol from plugin)
 .text          0x0000000000000000        0x0 AHI_System.o (symbol from plugin)
 .text          0x0000000000000000        0x0 AHI_Timer.o (symbol from plugin)
 .text          0x0000000000000000        0x0 AHI_TimerInt.o (symbol from plugin)
 .text          0x0000000000000000        0x0 AHI_Uart.o (symbol from plugin)
 .text          0x0000000000000000        0x0 AHI_WakeTimer.o (symbol from plugin)
 .text          0x0000000000000000        0x0 AHI_Flash.o (symbol from plugin)
 .text          0x0000000000000000        0x0 AHI_Infrared.o (symbol from plugin)
 .text          0x0000000000000000        0x0 InternalFlashApi.o (symbol from plugin)
 .text          0x0000000000000000        0x0 EEP_EEPROM.o (symbol from plugin)
 .text          0x0000000000000000        0x0 AHI_Si.o (symbol from plugin)
 .text          0x0000000000000000        0x0 AHI_TickTimer.o (symbol from plugin)
 .data          0x0000000000000000        0x0 C:\nxp\bstudio_nxp\sdk\JN-SW-4163/Components/Library\libHardwareApi_JN516x.a(AHI_Interrupt.o)
 .bss           0x0000000000000000        0x0 C:\nxp\bstudio_nxp\sdk\JN-SW-4163/Components/Library\libHardwareApi_JN516x.a(AHI_Interrupt.o)
 .text          0x0000000000000000        0x0 AHI_Init.o (symbol from plugin)
 .text          0x0000000000000000        0x0 AHI_SpiSlave.o (symbol from plugin)
 .text          0x0000000000000000        0x0 MicroInt_ba.o (symbol from plugin)
 .text          0x0000000000000000        0x0 C:\nxp\bstudio_nxp\sdk\JN-SW-4163/Components/Library\libMicroSpecific_JN516x.a(MicroSyscall_ba.o)
 .data          0x0000000000000000        0x0 C:\nxp\bstudio_nxp\sdk\JN-SW-4163/Components/Library\libMicroSpecific_JN516x.a(MicroSyscall_ba.o)
 .bss           0x0000000000000000        0x0 C:\nxp\bstudio_nxp\sdk\JN-SW-4163/Components/Library\libMicroSpecific_JN516x.a(MicroSyscall_ba.o)
 .text          0x0000000000000000        0x0 Heap.o (symbol from plugin)
 .text          0x0000000000000000        0x0 C:\nxp\bstudio_nxp\sdk\JN-SW-4163/Components/Library\libBoot_JN516x.a(ExceptionHandler.o)
 .data          0x0000000000000000        0x0 C:\nxp\bstudio_nxp\sdk\JN-SW-4163/Components/Library\libBoot_JN516x.a(ExceptionHandler.o)
 .bss           0x0000000000000000        0x0 C:\nxp\bstudio_nxp\sdk\JN-SW-4163/Components/Library\libBoot_JN516x.a(ExceptionHandler.o)
 .text          0x0000000000000000        0x0 LcdDriver.o (symbol from plugin)
 .text          0x0000000000000000        0x0 LcdFont.o (symbol from plugin)
 .text          0x0000000000000000        0x0 AppHousekeeping.o (symbol from plugin)
 .text          0x0000000000000000        0x0 AEScoprocessorAPIinterrupts.o (symbol from plugin)
 .data          0x0000000000000000        0x0 c:/nxp/bstudio_nxp/sdk/tools/ba-elf-ba2-r36379/bin/../lib/gcc/ba-elf/4.7.4/../../../../ba-elf/lib/mcpu_jn51xx_sizeopt\libc.a(lib_a-strtok.o)
 .bss           0x0000000000000000        0x0 c:/nxp/bstudio_nxp/sdk/tools/ba-elf-ba2-r36379/bin/../lib/gcc/ba-elf/4.7.4/../../../../ba-elf/lib/mcpu_jn51xx_sizeopt\libc.a(lib_a-strtok.o)
 .data          0x0000000000000000        0x0 c:/nxp/bstudio_nxp/sdk/tools/ba-elf-ba2-r36379/bin/../lib/gcc/ba-elf/4.7.4/../../../../ba-elf/lib/mcpu_jn51xx_sizeopt\libc.a(lib_a-strtok_r.o)
 .bss           0x0000000000000000        0x0 c:/nxp/bstudio_nxp/sdk/tools/ba-elf-ba2-r36379/bin/../lib/gcc/ba-elf/4.7.4/../../../../ba-elf/lib/mcpu_jn51xx_sizeopt\libc.a(lib_a-strtok_r.o)
 .text          0x0000000000000000        0x0 c:/nxp/bstudio_nxp/sdk/tools/ba-elf-ba2-r36379/bin/../lib/gcc/ba-elf/4.7.4/../../../../ba-elf/lib/mcpu_jn51xx_sizeopt\libc.a(lib_a-impure.o)
 .bss           0x0000000000000000        0x0 c:/nxp/bstudio_nxp/sdk/tools/ba-elf-ba2-r36379/bin/../lib/gcc/ba-elf/4.7.4/../../../../ba-elf/lib/mcpu_jn51xx_sizeopt\libc.a(lib_a-impure.o)
 .rodata        0x0000000000000000        0x4 c:/nxp/bstudio_nxp/sdk/tools/ba-elf-ba2-r36379/bin/../lib/gcc/ba-elf/4.7.4/../../../../ba-elf/lib/mcpu_jn51xx_sizeopt\libc.a(lib_a-impure.o)

Memory Configuration

Name             Origin             Length             Attributes
flash            0x0000000000080000 0x0000000000040000
ram              0x000000000400004c 0x0000000000007fb4
*default*        0x0000000000000000 0xffffffffffffffff

Linker script and memory map

LOAD crd_coordinator.o
LOAD C:\Users\K98David\AppData\Local\Temp\ccVZTc6e.ltrans0.ltrans.o
LOAD C:\Users\K98David\AppData\Local\Temp\ccVZTc6e.ltrans1.ltrans.o
LOAD C:\Users\K98David\AppData\Local\Temp\ccVZTc6e.ltrans2.ltrans.o
LOAD C:\Users\K98David\AppData\Local\Temp\ccVZTc6e.ltrans3.ltrans.o
LOAD C:\Users\K98David\AppData\Local\Temp\ccVZTc6e.ltrans4.ltrans.o
LOAD C:\Users\K98David\AppData\Local\Temp\ccVZTc6e.ltrans5.ltrans.o
LOAD C:\Users\K98David\AppData\Local\Temp\ccVZTc6e.ltrans6.ltrans.o
LOAD C:\Users\K98David\AppData\Local\Temp\ccVZTc6e.ltrans7.ltrans.o
LOAD C:\Users\K98David\AppData\Local\Temp\ccVZTc6e.ltrans8.ltrans.o
LOAD C:\Users\K98David\AppData\Local\Temp\ccVZTc6e.ltrans9.ltrans.o
LOAD C:\Users\K98David\AppData\Local\Temp\ccVZTc6e.ltrans10.ltrans.o
LOAD C:\Users\K98David\AppData\Local\Temp\ccVZTc6e.ltrans11.ltrans.o
LOAD C:\Users\K98David\AppData\Local\Temp\ccVZTc6e.ltrans12.ltrans.o
LOAD C:\Users\K98David\AppData\Local\Temp\ccVZTc6e.ltrans13.ltrans.o
LOAD C:\Users\K98David\AppData\Local\Temp\ccVZTc6e.ltrans14.ltrans.o
LOAD C:\Users\K98David\AppData\Local\Temp\ccVZTc6e.ltrans15.ltrans.o
LOAD C:\Users\K98David\AppData\Local\Temp\ccVZTc6e.ltrans16.ltrans.o
LOAD c:/nxp/bstudio_nxp/sdk/tools/ba-elf-ba2-r36379/bin/../lib/gcc/ba-elf/4.7.4/../../../../ba-elf/lib/mcpu_jn51xx_sizeopt\libc.a
LOAD c:/nxp/bstudio_nxp/sdk/tools/ba-elf-ba2-r36379/bin/../lib/gcc/ba-elf/4.7.4/mcpu_jn51xx_sizeopt\libgcc.a
LOAD c:/nxp/bstudio_nxp/sdk/tools/ba-elf-ba2-r36379/bin/../lib/gcc/ba-elf/4.7.4/../../../../ba-elf/lib/mcpu_jn51xx_sizeopt\libc.a
LOAD dbg.o
LOAD lcd.o
LOAD node.o
LOAD queue.o
LOAD rnd.o
LOAD uart.o
LOAD wuart.o
LOAD AppQueueApi.o
LOAD QApp.o
LOAD enddevice.o
LOAD Qsensor.o
LOAD QUtils.o
LOAD QEvent_Process.o
START GROUP
LOAD C:\nxp\bstudio_nxp\sdk\JN-SW-4163/Components/Library\libAppApi_JN516x.a
LOAD C:\nxp\bstudio_nxp\sdk\JN-SW-4163/Components/Library\libMAC_JN516x.a
LOAD C:\nxp\bstudio_nxp\sdk\JN-SW-4163/Components/Library\libTimerServer_JN516x.a
LOAD C:\nxp\bstudio_nxp\sdk\JN-SW-4163/Components/Library\libTOF_JN516x.a
LOAD C:\nxp\bstudio_nxp\sdk\JN-SW-4163/Components/Library\libXcv_JN516x.a
LOAD C:\nxp\bstudio_nxp\sdk\JN-SW-4163/Components/Library\libAes_JN516x.a
LOAD C:\nxp\bstudio_nxp\sdk\JN-SW-4163/Components/Library\libHardwareApi_JN516x.a
LOAD C:\nxp\bstudio_nxp\sdk\JN-SW-4163/Components/Library\libMicroSpecific_JN516x.a
LOAD C:\nxp\bstudio_nxp\sdk\JN-SW-4163/Components/Library\libBoot_JN516x.a
LOAD C:\nxp\bstudio_nxp\sdk\JN-SW-4163/Components/Library\libPDM_EEPROM_JN516x_NO_RTOS.a
LOAD C:\nxp\bstudio_nxp\sdk\JN-SW-4163/Platform/DK4/Library\libBoardLib_JN516x.a
END GROUP
LOAD c:/nxp/bstudio_nxp/sdk/tools/ba-elf-ba2-r36379/bin/../lib/gcc/ba-elf/4.7.4/../../../../ba-elf/lib/mcpu_jn51xx_sizeopt\libc.a
LOAD c:/nxp/bstudio_nxp/sdk/tools/ba-elf-ba2-r36379/bin/../lib/gcc/ba-elf/4.7.4/mcpu_jn51xx_sizeopt\libgcc.a
LOAD c:/nxp/bstudio_nxp/sdk/tools/ba-elf-ba2-r36379/bin/../lib/gcc/ba-elf/4.7.4/../../../../ba-elf/lib/mcpu_jn51xx_sizeopt\libc.a
                0x0000000000000800                _stack_size = 0x800
                0x0000000000080038                _exception_vsr_table = 0x80038
                0x0000000004000000                pSPIflashFncTable = 0x4000000
                0x0000000000000800                _stack_size = 0x800
                0x0000000000000044                restore_state = 0x44
                0x000000000000004a                bZSPIWaitWIPClear = 0x4a
                0x0000000000000050                u16ZSPIflashRDID = 0x50
                0x0000000000000056                u8SelectFlashChipType = 0x56
                0x000000000000005c                memcpy = 0x5c
                0x0000000000000066                vBootFlashProg = 0x66
                [0x0000000000000d16]                _minimum_heap_size = DEFINED (_minimum_heap_size)?_minimum_heap_size:0xd16
                0x0000000000000000                _SwConfig = (DEFINED (g_bSWConf_Debug) | (DEFINED (g_bSWConf_AltDebugPort) << 0x1))

.version        0x000000000007fffc        0x4
                0x000000000007fffc        0x4 LONG 0x7030008

.bir            0x0000000000080000       0x10
                0x0000000000080000                _flash_start = ABSOLUTE (.)
                0x0000000000080000                _flash_beg = ABSOLUTE (.)
                0x0000000000080000        0x4 LONG 0x12345678
                0x0000000000080004        0x4 LONG 0x11223344
                0x0000000000080008        0x4 LONG 0x55667788
                0x000000000008000c        0x1 BYTE 0x8
                0x000000000008000d        0x1 BYTE 0x1
                0x000000000008000e        0x2 SHORT 0x0

.flashheader    0x0000000000080010       0x28
                0x0000000000080010        0x4 LONG 0x0
                0x0000000000080014        0x4 LONG 0x0
                0x0000000000080018        0x4 LONG 0x0
                0x000000000008001c        0x2 SHORT 0x0
                0x000000000008001e        0x2 SHORT 0x0 ABSOLUTE (_SwConfig)
                0x0000000000080020                _enc_start = ABSOLUTE (.)
                0x0000000000080020        0x4 LONG 0xd4f4 ABSOLUTE (_image_len)
                0x0000000000080024        0x4 LONG 0x8d000 ABSOLUTE (_flash_data_start)
                0x0000000000080028        0x2 SHORT 0x13 ((ABSOLUTE (_ram_data_start) / 0x4) & 0xffff)
                0x000000000008002a        0x2 SHORT 0x13d ((ABSOLUTE (_ram_data_len) / 0x4) & 0xffff)
                0x000000000008002c        0x2 SHORT 0x150 ((ABSOLUTE (_bss_start) / 0x4) & 0xffff)
                0x000000000008002e        0x2 SHORT 0x171c ((ABSOLUTE (_bss_len) / 0x4) & 0xffff)
                0x0000000000080030        0x4 LONG 0x88ac0 ABSOLUTE (AppWarmStart)
                0x0000000000080034        0x4 LONG 0x88acc ABSOLUTE (AppColdStart)
                0x0000000000000000                _enc_offset = (_enc_start & 0xf)
                0x0000000000000044                PROVIDE (vException_BusError, restore_state)
                0x0000000000000044                PROVIDE (vException_UnalignedAccess, restore_state)
                0x0000000000000044                PROVIDE (vException_IllegalInstruction, restore_state)
                0x0000000000000044                PROVIDE (vException_SysCall, restore_state)
                0x0000000000000044                PROVIDE (vException_Trap, restore_state)
                0x0000000000000044                PROVIDE (vException_StackOverflow, restore_state)
                0x0000000000080038                . = ABSOLUTE (_exception_vsr_table)

.vsr_table      0x0000000000080038       0x18
                0x0000000000080038        0x4 LONG 0x44 ABSOLUTE (vException_BusError)
                0x000000000008003c        0x4 LONG 0x44 ABSOLUTE (vException_UnalignedAccess)
                0x0000000000080040        0x4 LONG 0x44 ABSOLUTE (vException_IllegalInstruction)
                0x0000000000080044        0x4 LONG 0x44 ABSOLUTE (vException_SysCall)
                0x0000000000080048        0x4 LONG 0x44 ABSOLUTE (vException_Trap)
                0x000000000008004c        0x4 LONG 0x44 ABSOLUTE (vException_StackOverflow)

.vsr_handlers   0x0000000000080050       0xaa
 *(.vsr_handlers)
 .vsr_handlers  0x0000000000080050       0xaa C:\nxp\bstudio_nxp\sdk\JN-SW-4163/Components/Library\libBoot_JN516x.a(ExceptionHandler.o)
                0x0000000000080050                _exception_external_interrupt
                0x00000000000800f8                _default_vsr_dummy

.rodata         0x00000000000800fc     0x125b
 *(.rodata*)
 .rodata        0x00000000000800fc       0xcb C:\Users\K98David\AppData\Local\Temp\ccVZTc6e.ltrans0.ltrans.o
 .rodata.str1.1
                0x00000000000801c7      0x418 C:\Users\K98David\AppData\Local\Temp\ccVZTc6e.ltrans1.ltrans.o
 *fill*         0x00000000000805df        0x1 00
 .rodata        0x00000000000805e0       0x44 C:\Users\K98David\AppData\Local\Temp\ccVZTc6e.ltrans2.ltrans.o
 .rodata        0x0000000000080624       0xd4 C:\Users\K98David\AppData\Local\Temp\ccVZTc6e.ltrans3.ltrans.o
                0x0000000000080624                s_aprScanHandleEvt.10073
                0x0000000000080654                apvActionCalls
                0x00000000000806dc                aprLPBMacVectorRamTable
                0x00000000000806f0                psTamMacContext
                0x00000000000806f4                psTAMcontext
 .rodata        0x00000000000806f8        0xc C:\Users\K98David\AppData\Local\Temp\ccVZTc6e.ltrans4.ltrans.o
                0x00000000000806f8                au32UartAddrOffset
 .rodata.str1.1
                0x0000000000080704      0x359 C:\Users\K98David\AppData\Local\Temp\ccVZTc6e.ltrans5.ltrans.o
                                        0x388 (size before relaxing)
 .rodata        0x0000000000080a5d       0x17 C:\Users\K98David\AppData\Local\Temp\ccVZTc6e.ltrans6.ltrans.o
 .rodata        0x0000000000080a74       0x1c C:\Users\K98David\AppData\Local\Temp\ccVZTc6e.ltrans7.ltrans.o
                0x0000000000080a74                psTamXcvContext
 .rodata.str1.1
                0x0000000000080a90      0x292 C:\Users\K98David\AppData\Local\Temp\ccVZTc6e.ltrans8.ltrans.o
                                        0x2c8 (size before relaxing)
 .rodata        0x0000000000080d22        0x6 C:\Users\K98David\AppData\Local\Temp\ccVZTc6e.ltrans9.ltrans.o
                0x0000000000080d22                aeXcvPhyEvtToScanEvt.5378.10076
 .rodata.str1.1
                0x0000000000080d28      0x24a C:\Users\K98David\AppData\Local\Temp\ccVZTc6e.ltrans10.ltrans.o
                                        0x24f (size before relaxing)
 .rodata.str1.1
                0x0000000000080f72      0x104 C:\Users\K98David\AppData\Local\Temp\ccVZTc6e.ltrans11.ltrans.o
                                        0x14b (size before relaxing)
 .rodata        0x0000000000081076        0xa C:\Users\K98David\AppData\Local\Temp\ccVZTc6e.ltrans12.ltrans.o
 .rodata.str1.1
                0x0000000000081080      0x16b C:\Users\K98David\AppData\Local\Temp\ccVZTc6e.ltrans15.ltrans.o
 .rodata.str1.1
                0x00000000000811eb      0x16c C:\Users\K98David\AppData\Local\Temp\ccVZTc6e.ltrans16.ltrans.o
                                        0x199 (size before relaxing)
 .rodata.str1.1
                0x0000000000000000        0x0 c:/nxp/bstudio_nxp/sdk/tools/ba-elf-ba2-r36379/bin/../lib/gcc/ba-elf/4.7.4/../../../../ba-elf/lib/mcpu_jn51xx_sizeopt\libc.a(lib_a-impure.o)
                                          0x2 (size before relaxing)

.text           0x0000000000081358     0xbca7
 *(.text*)
 .text          0x0000000000081358     0x1535 C:\Users\K98David\AppData\Local\Temp\ccVZTc6e.ltrans0.ltrans.o
                0x0000000000081358                vTTIBLETimerExpired
                0x0000000000081363                mac_vLPBAdjustBeaconOffset
                0x00000000000813c0                mac_u32LPBGetBeaconTimeout
                0x00000000000813c9                eWEnDTmrExpiry.9714
                0x00000000000813d4                eWEnDEdDone.9711
                0x000000000008142f                eGenlDontCare.9708
                0x0000000000081434                eGenlIllegal.9333
                0x000000000008143b                u32GetTimer0
                0x0000000000081442                vSetTimer0
                0x0000000000081451                vUpdateRegisters.19325
                0x0000000000081498                psRemove.part.0.19275
                0x00000000000814c7                MAC_u8AclFindInfo
                0x00000000000815f1                vTASretrieveSecurity
                0x0000000000081613                MAC_bLookUpKeyDescriptor.16827
                0x000000000008168d                u8TSCframeIncrease
                0x00000000000816c6                vCopyToDataFromMacAddr.16737
                0x00000000000816f9                bTSCgetOutgoingInfo
                0x0000000000081802                psTAQsearchFifo
                0x000000000008184b                bTAQremoveFromFifo
                0x0000000000081888                vTAMinsertEvent
                0x00000000000818ee                vTTITimer2Expired
                0x00000000000818f2                vTTITimer1Expired
                0x00000000000818f6                vTAM_TxRetryTimeout
                0x00000000000818fa                vTACsetTxFrameDefaults
                0x0000000000081920                u8TACgetHeaderSize
                0x000000000008195d                bUpdateTime.15055
                0x0000000000081998                u32TACpayloadToU32M
                0x00000000000819b9                vTACu32ToPayloadM
                0x00000000000819d1                vTACbuildBeacon
                0x0000000000081bd9                bTACframeInProgress
                0x0000000000081c03                bTACassessBeaconForPayload
                0x0000000000081c54                bIsBbcSafeForTx
                0x0000000000081c7d                vTATwriteAclMaterialToHardware
                0x0000000000081ca2                vTATsetBLE
                0x0000000000081cd9                vTATgetFramePayload
                0x0000000000081cf6                eTATreadTXstatus
                0x0000000000081d3c                vTAHsetPhyStateDirect.part.0.14198
                0x0000000000081d58                vDoGoOff.16017
                0x0000000000081d72                vMEMreturn
                0x0000000000081de3                vTACinformOriginator
                0x0000000000081e05                vTTITransactionTimerExpired
                0x0000000000081e2d                pvMEMget
                0x0000000000081e59                vTAMDEdetermineNullState
                0x0000000000081e73                vTAMCOupdatePendingList
                0x0000000000081f45                vTAMCOsetCoordinator
                0x0000000000081f6b                vPhySetChannel
                0x0000000000082002                eScanHandleEvt.part.0.9744
                0x000000000008202b                mac_eDcfmIndPost
                0x000000000008204c                mac_psDcfmIndGetBuf
                0x000000000008206d                vMAC_MISCpollConfirm
                0x000000000008209d                vMLMErxEnableConfirm
                0x00000000000820cf                vMLMEcommStatus
                0x0000000000082132                vMLMEcommStatusFromFrame
                0x0000000000082176                vTSCpostTransmitUpdate
                0x00000000000821a5                vMLMEsyncLoss
                0x00000000000821d8                vPMICpostFailedAssocDcfm
                0x0000000000082210                vPMICassocReqTO_2.8161
                0x0000000000082227                MAC_vPibSetMinBe
                0x0000000000082245                MAC_vPibSetPanId
                0x0000000000082260                MAC_vPibSetShortAddr
                0x000000000008226e                vHandleTofRequest.6272
                0x0000000000082271                vAppApiDefSetPrbsSeed
                0x0000000000082295                sendEvent
                0x00000000000822a7                convertHex2ASCII_LowNibble
                0x00000000000822bf                convertHex2ASCII_HighNibble
                0x00000000000822d7                convertASCII2Hex
                0x0000000000082324                calc_crc
                0x0000000000082369                convertASCII2HexByte
                0x00000000000823c3                bFifoPush.3179
                0x00000000000823fc                vAppQApiPostMlme.3161
                0x0000000000082417                vAppQApiPostMcps.3168
                0x0000000000082432                pvFifoPull.3176
                0x0000000000082459                psAppQApiGetMlmeBuffer.3158
                0x0000000000082461                psAppQApiGetMcpsBuffer.3165
                0x0000000000082469                WUART_u8MsgSeqTxNew
                0x000000000008248c                QUEUE_bGet
                0x0000000000082514                QUEUE_bPut
                0x0000000000082590                UART_bPutChar
                0x00000000000825b9                printCmd
                0x00000000000825e2                UART_bPad2Min.2511
                0x0000000000082624                UART_bNum2String.2527
                0x00000000000827a7                QUEUE_bInit
 .text          0x000000000008288d      0xf2e C:\Users\K98David\AppData\Local\Temp\ccVZTc6e.ltrans1.ltrans.o
                0x000000000008288d                CRD_vMain.1559
 .text          0x00000000000837bb      0xa53 C:\Users\K98David\AppData\Local\Temp\ccVZTc6e.ltrans2.ltrans.o
                0x00000000000837bb                mac_vLPBStopTimer
                0x00000000000837dc                mac_vLPBStartTimer
                0x00000000000838f3                vACI_IntHandlerAes
                0x0000000000083918                vAHI_IntHandlerSpiSlave
                0x0000000000083923                vAHI_IntHandlerTickTimer
                0x000000000008396a                vAHI_IntHandlerSi
                0x0000000000083a5b                vAHI_IntHandlerTimer2
                0x0000000000083a89                vAHI_IntHandlerSysCtrl
                0x0000000000083ae3                vAHI_IntHandlerUart1
                0x0000000000083b0e                vAHI_IntHandlerUart0
                0x0000000000083b39                vAHI_IntHandlerTimer4
                0x0000000000083b5a                vAHI_IntHandlerTimer3
                0x0000000000083b7b                vAHI_IntHandlerTimer1
                0x0000000000083b9b                vAHI_IntHandlerTimer0
                0x0000000000083bbc                vAHI_IntHandlerSpiMaster
                0x0000000000083be2                vAHI_IntHandlerAnalogPeriph
                0x0000000000083c6d                vExpireHead.19280
                0x0000000000083c9d                vAHI_TimerEnable.part.1.20137.constprop.61
                0x0000000000083cfb                vAHI_TimerStartRepeat.constprop.53
                0x0000000000083d34                iAHI_ReadDataFromEEPROMsegment.constprop.48
                0x0000000000083d97                iAHI_WriteDataIntoEEPROMsegment.constprop.38
                0x0000000000083dfc                XCV_vCtor.constprop.27
                0x0000000000083fca                vMicroIntEnableOnly.constprop.20
                0x0000000000083ff6                pvHeap_Alloc
                0x0000000000083ff9                iAHI_EraseEEPROMsegment
                0x000000000008403a                processDLIS
                0x000000000008406a                processDCMD
                0x000000000008409b                u16AHI_InitialiseEEP
                0x00000000000840dd                UART_vRts.part.0.2419
                0x000000000008412e                vAHI_UartWriteData
                0x000000000008414a                vAHI_UartReset.part.4.20356
                0x0000000000084182                vAHI_TimerDisable.part.2.20145
                0x00000000000841a5                vAHI_WatchdogStop
                0x00000000000841bc                vAHI_SwReset
                0x00000000000841cd                vAHI_DioSetOutput
                0x00000000000841e1                vAHI_DioSetDirection
                0x00000000000841f5                vTAIdisableInterrupt
 .text.unlikely
                0x000000000008420e      0x12a C:\Users\K98David\AppData\Local\Temp\ccVZTc6e.ltrans2.ltrans.o
                0x0000000000084223                vAHI_WatchdogStart.constprop.12
                0x000000000008423a                vAHI_MemoryHold.20036
 .text          0x0000000000084338      0xbc8 C:\Users\K98David\AppData\Local\Temp\ccVZTc6e.ltrans3.ltrans.o
                0x0000000000084338                eWBRTTxDone.9730
                0x0000000000084356                vTAMCOframeTXgoingIdle
                0x000000000008436f                vTAMCOframeTXcap
                0x0000000000084393                vTAMCOframeTXnobeacon
                0x00000000000843a8                vTAMCOframeStarting
                0x00000000000843c1                eWCoRRxDone.9721
                0x0000000000084469                eWBcnRxDone.9733
                0x0000000000084a4d                vTAMCOframeRXcap
                0x0000000000084a5f                vTAMCOframeRXgoingIdle
                0x0000000000084a75                vTAMCOframeRXnobeacon
                0x0000000000084a87                vTAMDEframeRX
                0x0000000000084aaf                vTAMDEframeRXtrackingDR
                0x0000000000084af2                vTAMDEframePreSyncReq
                0x0000000000084b0a                vTAMCOframeTXbeacon
                0x0000000000084bd1                vTAMDEframeRXsyncReq
                0x0000000000084e20                vTAMDEint1FiredTrackingCAPgts
                0x0000000000084ed1                eWONTTxDone.9727
 .text          0x0000000000084f00      0xaff C:\Users\K98David\AppData\Local\Temp\ccVZTc6e.ltrans4.ltrans.o
                0x0000000000084f00                vTACintRXheader
                0x00000000000856fb                UART_vInterrupt.2415
                0x00000000000858dd                vTAMCOstartBeacon
                0x0000000000085919                vStartStoreValues.12380
                0x00000000000859d0                bStartCallback.12409
 .text          0x00000000000859ff      0xdc5 C:\Users\K98David\AppData\Local\Temp\ccVZTc6e.ltrans5.ltrans.o
                0x00000000000859ff                vAppQApiPostHwInt
                0x0000000000085a74                DBG_vPrintf
                0x0000000000085ac3                ISR_handleSysCtrl.3440
                0x0000000000085b81                timer0Callback
                0x0000000000085bfe                parseCommand
                0x0000000000085cf7                WUART_vRxQ
                0x0000000000085e68                processRFChannel
                0x0000000000085e8f                processDestAddress
                0x0000000000085ec6                processOwnAddress
                0x0000000000085f03                processPANID
                0x0000000000085f40                timer4_Polling_Callback
                0x0000000000085fcf                processSlis
                0x0000000000086137                processSCMD
                0x0000000000086255                processRfEnableLoop
                0x000000000008627f                processRfDisableLoop
                0x00000000000862ab                processRfLoopTime
                0x0000000000086358                processlist
                0x00000000000863bd                processCMD1
                0x00000000000863d7                processCMD2
                0x00000000000863f1                processXLIS
                0x000000000008656b                processXCMD
                0x0000000000086689                getSensorCMD
 .text          0x00000000000867c4      0xb9e C:\Users\K98David\AppData\Local\Temp\ccVZTc6e.ltrans6.ltrans.o
                0x00000000000867c4                vXCV_IntHandlerPhy
                0x0000000000086876                vScanHandleTimer.9330
                0x000000000008687b                vXCV_IntHandlerBbc
                0x000000000008691e                UART_vStartTx
                0x00000000000869f4                processSwcf
                0x0000000000086b4f                UART_bPrintf_ap.part.10.2584
                0x0000000000086e1c                u8TAM_AES_WriteAuxilliarySecurityHeaderIntoBuffer
                0x0000000000086e8e                phy_ePibSet.part.1.11540
                0x0000000000086ef4                vTAIsetCapTime
                0x0000000000086f15                vTAIsetRxEnableTime
                0x0000000000086f36                vDoGoActive.16019
                0x0000000000086f58                vTAMRXEint2Fired
                0x0000000000086f8e                vMLMEbeaconNotify
                0x00000000000870ec                vMCPSframeReceived
                0x00000000000871af                vTAMRXEsetPhy
                0x0000000000087272                vTAHsetPhyState
                0x00000000000872a2                vTAMCOint2Fired
                0x00000000000872c2                vSetPHYfromMacValue.12855
                0x00000000000872f4                vTAMDEint1FiredWaitDR
                0x0000000000087301                vTACsetPHYfromMacValue
                0x0000000000087322                vTAMRXEsetReceiveForPibChange
 *fill*         0x0000000000087362        0x2 00
 .text          0x0000000000087364      0xa00 C:\Users\K98David\AppData\Local\Temp\ccVZTc6e.ltrans7.ltrans.o
                0x0000000000087364                vPMICassocReqTO_1.8154
                0x00000000000873ec                vTAM_MCPSdataRequest
                0x000000000008742f                bTACcheckPANconflict
                0x00000000000874e8                vTAMDEstartSync
                0x0000000000087567                eTAMselect
                0x00000000000876a8                MAC_pvCtor
                0x0000000000087ab2                u32AppApiDefInit
                0x0000000000087b67                vDeterminePowerState.12979
                0x0000000000087beb                vTAMDEint1FiredTrackingBeacon
                0x0000000000087c8b                vTAMDEint2FiredTrackingDR
                0x0000000000087cb0                vTAMDEframeTXtrackingDR
                0x0000000000087d09                vTAMDEint2FiredPollActive
                0x0000000000087d3d                vTAMDEreqTXnullTrackingCAP
                0x0000000000087d56                vTAM_TxRetryTimer
 .text          0x0000000000087d64      0xc1b C:\Users\K98David\AppData\Local\Temp\ccVZTc6e.ltrans8.ltrans.o
                0x0000000000087d64                processExit
                0x0000000000087d96                vAppApiDefMcpsRequest
                0x0000000000087dc4                WUART_vTx.part.0.2846.constprop.16
                0x0000000000087e53                WUART_vTxAck
                0x0000000000087f4e                Eventhandle
                0x0000000000088702                processPsW
                0x0000000000088863                CRD_vReqStartCoordinator.1486
                0x00000000000888cd                CRD_vMlmeDcfmInd_Master.1535
 .text.unlikely
                0x000000000008897f       0x6a C:\Users\K98David\AppData\Local\Temp\ccVZTc6e.ltrans8.ltrans.o
                0x000000000008897f                ED_vReqStartEnddevice
 *fill*         0x00000000000889e9        0x3 00
 .text          0x00000000000889ec      0x97c C:\Users\K98David\AppData\Local\Temp\ccVZTc6e.ltrans9.ltrans.o
                0x00000000000889ec                vPostDcfm.9717
                0x0000000000088ac0                AppWarmStart
                0x0000000000088acc                AppColdStart
                0x0000000000088ad8                vSetNextChannel.9765
                0x0000000000088b17                MAC_vHandleMlmeReqRsp
                0x0000000000089290                vTAMDEint1FiredTracking
                0x0000000000089300                vTAMDEint1FiredSyncReq
 .text          0x0000000000089368      0x974 C:\Users\K98David\AppData\Local\Temp\ccVZTc6e.ltrans10.ltrans.o
                0x0000000000089368                processPAIR
                0x0000000000089389                processBitMode
                0x00000000000893a2                Key_timer3Callback
                0x0000000000089476                processRepeat
                0x00000000000894a1                processMasterSlave
                0x00000000000894eb                processStopBit
                0x000000000008952c                processDataBit
                0x000000000008956e                processParityType
                0x00000000000895b1                processParity
                0x00000000000895f2                processBaud
                0x000000000008968c                processReset
                0x00000000000896a2                processSaveFlash
                0x00000000000896db                UART_bOpen.part.1.2427.constprop.42
                0x00000000000899e1                wuart_vPrintf.constprop.40
                0x0000000000089a0a                CRD_vMcpsDcfmInd.1547
                0x0000000000089b37                UART_bRxEnable.part.6.2465
                0x0000000000089bdb                UART_bTxDisable.part.9.2473
                0x0000000000089c57                UART_bTxEnable.part.11.2600
 .text          0x0000000000089cdc      0xb34 C:\Users\K98David\AppData\Local\Temp\ccVZTc6e.ltrans11.ltrans.o
                0x0000000000089d32                u8Write802_15_4HeaderIntoBuffer.18026
                0x0000000000089e92                UART_bRxDisable.part.8.2469
                0x0000000000089f47                vACI_OptimisedCcmStar
                0x000000000008a15f                WUART_vInit
                0x000000000008a431                processATEreaseEE
                0x000000000008a5a7                Restorekey0_timer1Callback
 .text          0x000000000008a810      0x87e C:\Users\K98David\AppData\Local\Temp\ccVZTc6e.ltrans12.ltrans.o
                0x000000000008a810                bTAM_AES_CCMstarPatch
                0x000000000008a954                bTAM_AES_CCMstarPatch2006
                0x000000000008ac33                bTATsendFrame
                0x000000000008ac86                vTrySendFromDirectCAP.12312
                0x000000000008aca1                vTrySendFromDirectNoBeacon.12316
                0x000000000008accc                vTAMCOint1Fired
                0x000000000008ade8                vTAMCOint1FiredCAP
                0x000000000008ae5a                vTAMCOreqTXnoBeacon
                0x000000000008ae6b                vTAMCOreqTXinCAP
                0x000000000008ae91                vTrySendUnslotted.12857
                0x000000000008aeab                bSendDataRequest.12859
                0x000000000008afbd                bProcessBeaconRX.12862
 .text          0x000000000008b08e      0x736 C:\Users\K98David\AppData\Local\Temp\ccVZTc6e.ltrans13.ltrans.o
                0x000000000008b08e                TSV_eStart
                0x000000000008b172                eTAStransmitRequest
                0x000000000008b50d                TSV_eOpen
                0x000000000008b515                vAppApiDefRestoreMacSettings
                0x000000000008b5ee                vAppApiDefSaveMacSettings
                0x000000000008b64b                mac_vLPBSleep
                0x000000000008b710                pvAppApiDefGetMacAddrLocation
                0x000000000008b719                eAppApiDefPlmeGet
                0x000000000008b76c                eAppApiDefPlmeSet
 *fill*         0x000000000008b7c4        0x0 00
 .text          0x000000000008b7c4      0x750 C:\Users\K98David\AppData\Local\Temp\ccVZTc6e.ltrans14.ltrans.o
                0x000000000008b7c4                eGenTmrExpiry.10026
                0x000000000008b806                eWEDTEdDone.10029
                0x000000000008b82a                TSV_eStop
                0x000000000008b8e9                bPMICdisassocReqSent.8150
                0x000000000008b99f                MAC_vHandleMcpsReqRsp
                0x000000000008ba2c                bMCPSframeTXcomplete.10761
                0x000000000008ba81                bSendSyncLoss.14990
                0x000000000008ba99                bPollReqSent.18586
                0x000000000008bab1                bTASsendCommStatusInd
                0x000000000008bac6                bAssocRespSent.8146
                0x000000000008bad9                eTACprocessFrameTXcomplete
                0x000000000008bc55                vTAMDEframeTXDEnull
                0x000000000008bc78                vTAMDEframeTXtrackingCAPgts
                0x000000000008bca4                bPMICassocReqSent.8142
                0x000000000008bd26                bPMICassocReqPollSent.8157
                0x000000000008bd7a                eWChCChanChgd.9741
 .text          0x000000000008bf14      0x5cf C:\Users\K98David\AppData\Local\Temp\ccVZTc6e.ltrans15.ltrans.o
                0x000000000008bf14                CRD_vHwInd.1552
 .text          0x000000000008c4e3      0x5d1 C:\Users\K98David\AppData\Local\Temp\ccVZTc6e.ltrans16.ltrans.o
                0x000000000008c4e3                eGenRxHdrDone.9724
                0x000000000008c4f3                vAppApiDefMlmeRequest
                0x000000000008c521                ED_vReqActiveScan
                0x000000000008c5db                pvAppApiDefGetMacHandle
                0x000000000008c5e4                WUART_vState.part.2.2856.constprop.19
                0x000000000008c69f                ED_vMlmeDcfmInd_Slave.1541
 .text          0x000000000008cab4       0x25 c:/nxp/bstudio_nxp/sdk/tools/ba-elf-ba2-r36379/bin/../lib/gcc/ba-elf/4.7.4/../../../../ba-elf/lib/mcpu_jn51xx_sizeopt\libc.a(lib_a-memcmp.o)
                0x000000000008cab4                memcmp
 .text          0x000000000008cad9       0x19 c:/nxp/bstudio_nxp/sdk/tools/ba-elf-ba2-r36379/bin/../lib/gcc/ba-elf/4.7.4/../../../../ba-elf/lib/mcpu_jn51xx_sizeopt\libc.a(lib_a-memcpy.o)
 .text          0x000000000008caf2       0x12 c:/nxp/bstudio_nxp/sdk/tools/ba-elf-ba2-r36379/bin/../lib/gcc/ba-elf/4.7.4/../../../../ba-elf/lib/mcpu_jn51xx_sizeopt\libc.a(lib_a-memset.o)
                0x000000000008caf2                memset
 .text          0x000000000008cb04       0x25 c:/nxp/bstudio_nxp/sdk/tools/ba-elf-ba2-r36379/bin/../lib/gcc/ba-elf/4.7.4/../../../../ba-elf/lib/mcpu_jn51xx_sizeopt\libc.a(lib_a-strcmp.o)
                0x000000000008cb04                strcmp
 .text          0x000000000008cb29       0x15 c:/nxp/bstudio_nxp/sdk/tools/ba-elf-ba2-r36379/bin/../lib/gcc/ba-elf/4.7.4/../../../../ba-elf/lib/mcpu_jn51xx_sizeopt\libc.a(lib_a-strcpy.o)
                0x000000000008cb29                strcpy
 .text          0x000000000008cb3e       0x12 c:/nxp/bstudio_nxp/sdk/tools/ba-elf-ba2-r36379/bin/../lib/gcc/ba-elf/4.7.4/../../../../ba-elf/lib/mcpu_jn51xx_sizeopt\libc.a(lib_a-strlen.o)
                0x000000000008cb3e                strlen
 .text          0x000000000008cb50       0x38 c:/nxp/bstudio_nxp/sdk/tools/ba-elf-ba2-r36379/bin/../lib/gcc/ba-elf/4.7.4/../../../../ba-elf/lib/mcpu_jn51xx_sizeopt\libc.a(lib_a-strncmp.o)
                0x000000000008cb50                strncmp
 *fill*         0x000000000008cb88        0x0 00
 .text          0x000000000008cb88      0x204 c:/nxp/bstudio_nxp/sdk/tools/ba-elf-ba2-r36379/bin/../lib/gcc/ba-elf/4.7.4/mcpu_jn51xx_sizeopt\libgcc.a(__udivsi3.o)
                0x000000000008cb88                __udivsi3
 .text          0x000000000008cd8c      0x1b0 c:/nxp/bstudio_nxp/sdk/tools/ba-elf-ba2-r36379/bin/../lib/gcc/ba-elf/4.7.4/mcpu_jn51xx_sizeopt\libgcc.a(__umodsi3.o)
                0x000000000008cd8c                __umodsi3
 .text          0x000000000008cf3c       0x27 C:\nxp\bstudio_nxp\sdk\JN-SW-4163/Components/Library\libHardwareApi_JN516x.a(AHI_Interrupt.o)
                0x000000000008cf3c                vAHI_InterruptSetPriority
                0x000000000008cf5a                vAHI_InterruptSetActivePriorityLevel
 .text.vMicroSyscall
                0x000000000008cf63       0x17 C:\nxp\bstudio_nxp\sdk\JN-SW-4163/Components/Library\libMicroSpecific_JN516x.a(MicroSyscall_ba.o)
                0x000000000008cf63                vMicroSyscall
 .text          0x000000000008cf7a        0xd c:/nxp/bstudio_nxp/sdk/tools/ba-elf-ba2-r36379/bin/../lib/gcc/ba-elf/4.7.4/../../../../ba-elf/lib/mcpu_jn51xx_sizeopt\libc.a(lib_a-strtok.o)
                0x000000000008cf7a                strtok
 .text          0x000000000008cf87       0x78 c:/nxp/bstudio_nxp/sdk/tools/ba-elf-ba2-r36379/bin/../lib/gcc/ba-elf/4.7.4/../../../../ba-elf/lib/mcpu_jn51xx_sizeopt\libc.a(lib_a-strtok_r.o)
                0x000000000008cf87                __strtok_r
                0x000000000008cffb                strtok_r
                0x000000000008cfff                _flash_end = ABSOLUTE (.)

.rela.dyn       0x000000000008d000        0x0
 .rela.text     0x0000000000000000        0x0 c:/nxp/bstudio_nxp/sdk/tools/ba-elf-ba2-r36379/bin/../lib/gcc/ba-elf/4.7.4/../../../../ba-elf/lib/mcpu_jn51xx_sizeopt\libc.a(lib_a-strtok.o)
 .rela.data     0x0000000000000000        0x0 c:/nxp/bstudio_nxp/sdk/tools/ba-elf-ba2-r36379/bin/../lib/gcc/ba-elf/4.7.4/../../../../ba-elf/lib/mcpu_jn51xx_sizeopt\libc.a(lib_a-strtok.o)
 .rela.rodata   0x0000000000000000        0x0 c:/nxp/bstudio_nxp/sdk/tools/ba-elf-ba2-r36379/bin/../lib/gcc/ba-elf/4.7.4/../../../../ba-elf/lib/mcpu_jn51xx_sizeopt\libc.a(lib_a-strtok.o)
 .rela.text.unlikely
                0x0000000000000000        0x0 c:/nxp/bstudio_nxp/sdk/tools/ba-elf-ba2-r36379/bin/../lib/gcc/ba-elf/4.7.4/../../../../ba-elf/lib/mcpu_jn51xx_sizeopt\libc.a(lib_a-strtok.o)
                0x000000000400004c                . = ORIGIN (ram)

.data           0x000000000400004c      0x4f4 load address 0x000000000008d000
                0x000000000400004c                _ram_data_start = ABSOLUTE (.)
 *(.data*)
 .data          0x000000000400004c       0x18 C:\Users\K98David\AppData\Local\Temp\ccVZTc6e.ltrans1.ltrans.o
                0x000000000400004c                gSerialMode
                0x0000000004000050                Timer0_Watchdog_flag
                0x0000000004000054                Timer4_Watchdog_flag
 .data          0x0000000004000064        0x4 C:\Users\K98David\AppData\Local\Temp\ccVZTc6e.ltrans2.ltrans.o
                0x0000000004000064                u32HeapStart
 .data.initinboot
                0x0000000004000068        0x8 C:\Users\K98David\AppData\Local\Temp\ccVZTc6e.ltrans2.ltrans.o
 .data          0x0000000004000070        0x2 C:\Users\K98David\AppData\Local\Temp\ccVZTc6e.ltrans5.ltrans.o
 .data          0x0000000004000072        0x1 C:\Users\K98David\AppData\Local\Temp\ccVZTc6e.ltrans7.ltrans.o
 .data.initinboot
                0x0000000004000073        0x1 C:\Users\K98David\AppData\Local\Temp\ccVZTc6e.ltrans7.ltrans.o
                0x0000000004000073                gMAC_u8MaxBuffers
 .data          0x0000000004000074       0x9a C:\Users\K98David\AppData\Local\Temp\ccVZTc6e.ltrans15.ltrans.o
                0x0000000004000074                gWorkingMode
                0x0000000004000075                gRxdelay_count
                0x0000000004000076                gWaitUARTPacket
                0x0000000004000077                au8CmdData
 *fill*         0x000000000400010e        0x2 00
 .data          0x0000000004000110      0x430 c:/nxp/bstudio_nxp/sdk/tools/ba-elf-ba2-r36379/bin/../lib/gcc/ba-elf/4.7.4/../../../../ba-elf/lib/mcpu_jn51xx_sizeopt\libc.a(lib_a-impure.o)
                0x0000000004000110                _impure_ptr
 *(.data.*)
                0x0000000004000540                . = ALIGN (0x4)
                0x0000000004000540                _ram_data_end = ABSOLUTE (.)

.bss            0x0000000004000540     0x5c70 load address 0x000000000008d4f4
                0x0000000004000540                _bss_start = ABSOLUTE (.)
 *(.bss*)
 .bss           0x0000000004000540        0x8 C:\Users\K98David\AppData\Local\Temp\ccVZTc6e.ltrans0.ltrans.o
 .bss           0x0000000004000548      0xf48 C:\Users\K98David\AppData\Local\Temp\ccVZTc6e.ltrans1.ltrans.o
                0x0000000004000548                prSiAppCallback.21045
                0x000000000400054c                prSpiAppCallback.19910
                0x0000000004000550                prTickTimeAppCallback
                0x0000000004000554                prUart1AppCallback.20577
                0x0000000004000558                prUart0AppCallback.20576
                0x000000000400055c                prApAppCallback.19785
                0x0000000004000560                prAppHwCallback
                0x0000000004000564                prAppMcpsCallback
                0x0000000004000568                prAppMlmeCallback
                0x000000000400056c                u8Uart.2033
                0x000000000400056d                gbHighPowerMode
                0x000000000400056e                gu8ModuleID
                0x0000000004000570                sensorList
                0x00000000040006b0                SensorCMD_Table
                0x0000000004000750                au16TimerSettings.20271
                0x000000000400075c                apfTimerAppCallback.20322
                0x0000000004000770                EEPROMSegmentDataLength
                0x0000000004000774                CommandList
                0x00000000040009e0                sMlmeIndQueue
                0x00000000040009f0                sMlmeIndBufferQueue
                0x0000000004000a00                sMcpsIndQueue
                0x0000000004000a10                sMcpsIndBufferQueue
                0x0000000004000a20                sHwIndQueue
                0x0000000004000a30                sHwIndBufferQueue
                0x0000000004000a40                NODE_sData
                0x0000000004000a70                gConfigData
 .bss.initinboot
                0x0000000004001490        0x8 C:\Users\K98David\AppData\Local\Temp\ccVZTc6e.ltrans1.ltrans.o
                0x0000000004001490                g_u32MacAddrLocation
                0x0000000004001494                prSysCtrlAppCallback.20113
 .bss           0x0000000004001498        0x8 C:\Users\K98David\AppData\Local\Temp\ccVZTc6e.ltrans2.ltrans.o
 .bss.dontinitinboot
                0x00000000040014a0        0xc C:\Users\K98David\AppData\Local\Temp\ccVZTc6e.ltrans2.ltrans.o
 .bss           0x00000000040014ac       0x40 C:\Users\K98David\AppData\Local\Temp\ccVZTc6e.ltrans3.ltrans.o
                0x00000000040014ac                g_sLP
                0x00000000040014e8                g_pvMac
 .bss.initinboot
                0x00000000040014ec      0x1c0 C:\Users\K98David\AppData\Local\Temp\ccVZTc6e.ltrans3.ltrans.o
                0x00000000040014ec                g_sMac
 .bss           0x00000000040016ac        0xc C:\Users\K98David\AppData\Local\Temp\ccVZTc6e.ltrans4.ltrans.o
 .bss           0x00000000040016b8       0x18 C:\Users\K98David\AppData\Local\Temp\ccVZTc6e.ltrans5.ltrans.o
 .bss           0x00000000040016d0       0x1c C:\Users\K98David\AppData\Local\Temp\ccVZTc6e.ltrans6.ltrans.o
                0x00000000040016d0                bTxEventQueued.15885
                0x00000000040016d1                u8TxEventStatus.15886
                0x00000000040016d4                sAppHousekeeping
 .bss           0x00000000040016ec        0xc C:\Users\K98David\AppData\Local\Temp\ccVZTc6e.ltrans7.ltrans.o
                0x00000000040016ec                g_sXcv
                0x00000000040016f0                prMcpsRequest.5159
                0x00000000040016f4                prMlmeRequest.5158
 .bss.initinboot
                0x00000000040016f8        0x4 C:\Users\K98David\AppData\Local\Temp\ccVZTc6e.ltrans7.ltrans.o
                0x00000000040016f8                prvUserTxStartedCallback
 .bss           0x00000000040016fc      0x308 C:\Users\K98David\AppData\Local\Temp\ccVZTc6e.ltrans8.ltrans.o
                0x00000000040016fc                PswCmdData
                0x0000000004001792                ATSLen
                0x0000000004001793                Len
                0x0000000004001794                PSW_CMD_flag
                0x0000000004001798                timeCount
                0x000000000400179c                ADV_Pack
                0x00000000040017a0                EndlsList_Number
                0x00000000040017a1                StarlsList_Number
                0x00000000040017a2                gEvents
 .bss           0x0000000004001a04       0x10 C:\Users\K98David\AppData\Local\Temp\ccVZTc6e.ltrans9.ltrans.o
                0x0000000004001a04                sAssocSecurity.8771
                0x0000000004001a10                g_bJenieBackwardsCompatibilityMode
 .bss           0x0000000004001a14       0x10 C:\Users\K98David\AppData\Local\Temp\ccVZTc6e.ltrans10.ltrans.o
                0x0000000004001a14                gKey1Count
                0x0000000004001a15                gKey0Count
                0x0000000004001a18                gKey1Pressed
 .bss           0x0000000004001a24     0x40a8 C:\Users\K98David\AppData\Local\Temp\ccVZTc6e.ltrans11.ltrans.o
                0x0000000004001a24                gKey0Pressed
 .bss.dontinitinboot
                0x0000000004005acc        0x1 C:\Users\K98David\AppData\Local\Temp\ccVZTc6e.ltrans12.ltrans.o
                0x0000000004005acc                u8SecurityMode.18053
 *fill*         0x0000000004005acd        0x3 00
 .bss           0x0000000004005ad0       0x1c C:\Users\K98David\AppData\Local\Temp\ccVZTc6e.ltrans13.ltrans.o
 .bss.initinboot
                0x0000000004005aec        0x1 C:\Users\K98David\AppData\Local\Temp\ccVZTc6e.ltrans13.ltrans.o
 *fill*         0x0000000004005aed        0x3 00
 .bss           0x0000000004005af0       0x14 C:\Users\K98David\AppData\Local\Temp\ccVZTc6e.ltrans14.ltrans.o
                0x0000000004005af0                s_sTimerList
                0x0000000004005b00                u8AssocResponsesInProgress.8770
 *fill*         0x0000000004005b04        0x4 00
 .bss           0x0000000004005b08      0x228 C:\Users\K98David\AppData\Local\Temp\ccVZTc6e.ltrans15.ltrans.o
                0x0000000004005b08                asUart.2645
                0x0000000004005b50                Sensor485State
                0x0000000004005b51                ModeBusData
                0x0000000004005be7                sensor_mode
                0x0000000004005be8                gFlashDataLEDG
                0x0000000004005bec                gFlashDataLED
                0x0000000004005bf0                gPairingPeriodCounter
                0x0000000004005bf2                gTurn485ReceiveMode
                0x0000000004005bf3                gCheckTimeoutCounter
                0x0000000004005bf4                gCheckRXTimeout
                0x0000000004005bf8                asQueue.2922
                0x0000000004005c48                gApplicationResend
                0x0000000004005c4c                gDoApplicationResend
                0x0000000004005c50                WUART_sData
 .bss           0x0000000004005d30      0x440 C:\Users\K98David\AppData\Local\Temp\ccVZTc6e.ltrans16.ltrans.o
                0x0000000004005d30                au32StateTimeout.3069
 .bss.dontinitinboot
                0x0000000004006170       0x40 C:\nxp\bstudio_nxp\sdk\JN-SW-4163/Components/Library\libBoot_JN516x.a(ExceptionHandler.o)
                0x0000000004006170                isr_handlers
 *(.bss.*)
 *(.scommon*)
 *(.scommon.*)
 *(COMMON)
                0x00000000040061b0                . = ALIGN (0x4)
                0x00000000040061b0                _bss_end = ABSOLUTE (.)

.heap           0x00000000040061b0      0xd16 load address 0x0000000000093164
                0x00000000040061b0                _heap_start = ABSOLUTE (.)
                0x0000000004006ec6                . = (. + _minimum_heap_size)
 *fill*         0x00000000040061b0      0xd16 00

.stack          0x0000000004007800      0x800 load address 0x00000000000947b4
                0x0000000004007800                _heap_end = ABSOLUTE (.)
                0x0000000004007800                _stack_low_water_mark = ABSOLUTE (.)
                0x0000000004008000                . = (. + _stack_size)
 *fill*         0x0000000004007800      0x800 00

.test           0x000000000008d4f4        0x1
                0x000000000008d4f4        0x1 BYTE 0xff
                0x000000000008d000                _flash_data_start = LOADADDR (.data)
                0x00000000000004f4                _ram_data_len = (((_ram_data_end - _ram_data_start) + 0x3) & 0xfffffffffffffffc)
                0x0000000000005c70                _bss_len = (((_bss_end - _bss_start) + 0x3) & 0xfffffffffffffffc)
                0x000000000000d4f4                _image_len = ((((_flash_end - _flash_start) + _ram_data_len) + 0x3) & 0xfffffffffffffffc)
                0x0000000004008000                _ram_top = (ABSOLUTE (ORIGIN (ram)) + 0x7fb4)
                0x0000000004008000                ram_top = (ABSOLUTE (ORIGIN (ram)) + 0x7fb4)
                0x0000000001001580                _app_ram_start = 0x1001580
                0x0000000004000064                PROVIDE (_heap_location, u32HeapStart)
                0x0000000004000064                PROVIDE (heap_location, u32HeapStart)
                0x000000000008b50d                TSV_eOpenVector = TSV_eOpen
                0x000000000008b08e                TSV_eStartVector = TSV_eStart
                0x000000000008b82a                TSV_eStopVector = TSV_eStop
                0x000000000008c5db                pvAppApiGetMacHandle = pvAppApiDefGetMacHandle
                0x0000000000087ab2                u32AppApiInit = u32AppApiDefInit
                0x000000000008c4f3                vAppApiMlmeRequest = vAppApiDefMlmeRequest
                0x0000000000087d96                vAppApiMcpsRequest = vAppApiDefMcpsRequest
                0x000000000008b76c                eAppApiPlmeSet = eAppApiDefPlmeSet
                0x000000000008b719                eAppApiPlmeGet = eAppApiDefPlmeGet
                0x000000000008b710                pvAppApiGetMacAddrLocation = pvAppApiDefGetMacAddrLocation
                0x000000000008b5ee                vAppApiSaveMacSettings = vAppApiDefSaveMacSettings
                0x000000000008b515                vAppApiRestoreMacSettings = vAppApiDefRestoreMacSettings
OUTPUT(Coordinator_JN5168.elf elf32-ba)

.comment        0x0000000000000000       0x11
 .comment       0x0000000000000000       0x12 C:\Users\K98David\AppData\Local\Temp\ccVZTc6e.ltrans0.ltrans.o
 .comment       0x0000000000000000       0x12 C:\Users\K98David\AppData\Local\Temp\ccVZTc6e.ltrans1.ltrans.o
 .comment       0x0000000000000000       0x12 C:\Users\K98David\AppData\Local\Temp\ccVZTc6e.ltrans2.ltrans.o
 .comment       0x0000000000000000       0x12 C:\Users\K98David\AppData\Local\Temp\ccVZTc6e.ltrans3.ltrans.o
 .comment       0x0000000000000000       0x12 C:\Users\K98David\AppData\Local\Temp\ccVZTc6e.ltrans4.ltrans.o
 .comment       0x0000000000000000       0x12 C:\Users\K98David\AppData\Local\Temp\ccVZTc6e.ltrans5.ltrans.o
 .comment       0x0000000000000000       0x12 C:\Users\K98David\AppData\Local\Temp\ccVZTc6e.ltrans6.ltrans.o
 .comment       0x0000000000000000       0x12 C:\Users\K98David\AppData\Local\Temp\ccVZTc6e.ltrans7.ltrans.o
 .comment       0x0000000000000000       0x12 C:\Users\K98David\AppData\Local\Temp\ccVZTc6e.ltrans8.ltrans.o
 .comment       0x0000000000000000       0x12 C:\Users\K98David\AppData\Local\Temp\ccVZTc6e.ltrans9.ltrans.o
 .comment       0x0000000000000000       0x12 C:\Users\K98David\AppData\Local\Temp\ccVZTc6e.ltrans10.ltrans.o
 .comment       0x0000000000000000       0x12 C:\Users\K98David\AppData\Local\Temp\ccVZTc6e.ltrans11.ltrans.o
 .comment       0x0000000000000000       0x12 C:\Users\K98David\AppData\Local\Temp\ccVZTc6e.ltrans12.ltrans.o
 .comment       0x0000000000000000       0x12 C:\Users\K98David\AppData\Local\Temp\ccVZTc6e.ltrans13.ltrans.o
 .comment       0x0000000000000000       0x12 C:\Users\K98David\AppData\Local\Temp\ccVZTc6e.ltrans14.ltrans.o
 .comment       0x0000000000000000       0x12 C:\Users\K98David\AppData\Local\Temp\ccVZTc6e.ltrans15.ltrans.o
 .comment       0x0000000000000000       0x12 C:\Users\K98David\AppData\Local\Temp\ccVZTc6e.ltrans16.ltrans.o
 .comment       0x0000000000000000       0x12 c:/nxp/bstudio_nxp/sdk/tools/ba-elf-ba2-r36379/bin/../lib/gcc/ba-elf/4.7.4/../../../../ba-elf/lib/mcpu_jn51xx_sizeopt\libc.a(lib_a-memcmp.o)
 .comment       0x0000000000000000       0x12 c:/nxp/bstudio_nxp/sdk/tools/ba-elf-ba2-r36379/bin/../lib/gcc/ba-elf/4.7.4/../../../../ba-elf/lib/mcpu_jn51xx_sizeopt\libc.a(lib_a-memcpy.o)
 .comment       0x0000000000000000       0x12 c:/nxp/bstudio_nxp/sdk/tools/ba-elf-ba2-r36379/bin/../lib/gcc/ba-elf/4.7.4/../../../../ba-elf/lib/mcpu_jn51xx_sizeopt\libc.a(lib_a-memset.o)
 .comment       0x0000000000000000       0x12 c:/nxp/bstudio_nxp/sdk/tools/ba-elf-ba2-r36379/bin/../lib/gcc/ba-elf/4.7.4/../../../../ba-elf/lib/mcpu_jn51xx_sizeopt\libc.a(lib_a-strcmp.o)
 .comment       0x0000000000000000       0x12 c:/nxp/bstudio_nxp/sdk/tools/ba-elf-ba2-r36379/bin/../lib/gcc/ba-elf/4.7.4/../../../../ba-elf/lib/mcpu_jn51xx_sizeopt\libc.a(lib_a-strcpy.o)
 .comment       0x0000000000000000       0x12 c:/nxp/bstudio_nxp/sdk/tools/ba-elf-ba2-r36379/bin/../lib/gcc/ba-elf/4.7.4/../../../../ba-elf/lib/mcpu_jn51xx_sizeopt\libc.a(lib_a-strlen.o)
 .comment       0x0000000000000000       0x12 c:/nxp/bstudio_nxp/sdk/tools/ba-elf-ba2-r36379/bin/../lib/gcc/ba-elf/4.7.4/../../../../ba-elf/lib/mcpu_jn51xx_sizeopt\libc.a(lib_a-strncmp.o)
 .comment       0x0000000000000000       0x11 C:\nxp\bstudio_nxp\sdk\JN-SW-4163/Components/Library\libMicroSpecific_JN516x.a(MicroSyscall_ba.o)
                                         0x12 (size before relaxing)
 .comment       0x0000000000000000       0x12 c:/nxp/bstudio_nxp/sdk/tools/ba-elf-ba2-r36379/bin/../lib/gcc/ba-elf/4.7.4/../../../../ba-elf/lib/mcpu_jn51xx_sizeopt\libc.a(lib_a-strtok.o)
 .comment       0x0000000000000000       0x12 c:/nxp/bstudio_nxp/sdk/tools/ba-elf-ba2-r36379/bin/../lib/gcc/ba-elf/4.7.4/../../../../ba-elf/lib/mcpu_jn51xx_sizeopt\libc.a(lib_a-strtok_r.o)
 .comment       0x0000000000000000       0x12 c:/nxp/bstudio_nxp/sdk/tools/ba-elf-ba2-r36379/bin/../lib/gcc/ba-elf/4.7.4/../../../../ba-elf/lib/mcpu_jn51xx_sizeopt\libc.a(lib_a-impure.o)

.debug_info     0x0000000000000000     0x1cd3
 .debug_info    0x0000000000000000       0xf3 c:/nxp/bstudio_nxp/sdk/tools/ba-elf-ba2-r36379/bin/../lib/gcc/ba-elf/4.7.4/../../../../ba-elf/lib/mcpu_jn51xx_sizeopt\libc.a(lib_a-memcmp.o)
 .debug_info    0x00000000000000f3      0x106 c:/nxp/bstudio_nxp/sdk/tools/ba-elf-ba2-r36379/bin/../lib/gcc/ba-elf/4.7.4/../../../../ba-elf/lib/mcpu_jn51xx_sizeopt\libc.a(lib_a-memcpy.o)
 .debug_info    0x00000000000001f9       0xd7 c:/nxp/bstudio_nxp/sdk/tools/ba-elf-ba2-r36379/bin/../lib/gcc/ba-elf/4.7.4/../../../../ba-elf/lib/mcpu_jn51xx_sizeopt\libc.a(lib_a-memset.o)
 .debug_info    0x00000000000002d0       0xbb c:/nxp/bstudio_nxp/sdk/tools/ba-elf-ba2-r36379/bin/../lib/gcc/ba-elf/4.7.4/../../../../ba-elf/lib/mcpu_jn51xx_sizeopt\libc.a(lib_a-strcmp.o)
 .debug_info    0x000000000000038b       0xce c:/nxp/bstudio_nxp/sdk/tools/ba-elf-ba2-r36379/bin/../lib/gcc/ba-elf/4.7.4/../../../../ba-elf/lib/mcpu_jn51xx_sizeopt\libc.a(lib_a-strcpy.o)
 .debug_info    0x0000000000000459       0xc8 c:/nxp/bstudio_nxp/sdk/tools/ba-elf-ba2-r36379/bin/../lib/gcc/ba-elf/4.7.4/../../../../ba-elf/lib/mcpu_jn51xx_sizeopt\libc.a(lib_a-strlen.o)
 .debug_info    0x0000000000000521       0xd3 c:/nxp/bstudio_nxp/sdk/tools/ba-elf-ba2-r36379/bin/../lib/gcc/ba-elf/4.7.4/../../../../ba-elf/lib/mcpu_jn51xx_sizeopt\libc.a(lib_a-strncmp.o)
 .debug_info    0x00000000000005f4       0xb4 c:/nxp/bstudio_nxp/sdk/tools/ba-elf-ba2-r36379/bin/../lib/gcc/ba-elf/4.7.4/mcpu_jn51xx_sizeopt\libgcc.a(__udivsi3.o)
 .debug_info    0x00000000000006a8       0xb4 c:/nxp/bstudio_nxp/sdk/tools/ba-elf-ba2-r36379/bin/../lib/gcc/ba-elf/4.7.4/mcpu_jn51xx_sizeopt\libgcc.a(__umodsi3.o)
 .debug_info    0x000000000000075c       0xaa C:\nxp\bstudio_nxp\sdk\JN-SW-4163/Components/Library\libBoot_JN516x.a(ExceptionHandler.o)
 .debug_info    0x0000000000000806      0x9cf c:/nxp/bstudio_nxp/sdk/tools/ba-elf-ba2-r36379/bin/../lib/gcc/ba-elf/4.7.4/../../../../ba-elf/lib/mcpu_jn51xx_sizeopt\libc.a(lib_a-strtok.o)
 .debug_info    0x00000000000011d5      0x18e c:/nxp/bstudio_nxp/sdk/tools/ba-elf-ba2-r36379/bin/../lib/gcc/ba-elf/4.7.4/../../../../ba-elf/lib/mcpu_jn51xx_sizeopt\libc.a(lib_a-strtok_r.o)
 .debug_info    0x0000000000001363      0x970 c:/nxp/bstudio_nxp/sdk/tools/ba-elf-ba2-r36379/bin/../lib/gcc/ba-elf/4.7.4/../../../../ba-elf/lib/mcpu_jn51xx_sizeopt\libc.a(lib_a-impure.o)

.debug_abbrev   0x0000000000000000      0x7d1
 .debug_abbrev  0x0000000000000000       0x8e c:/nxp/bstudio_nxp/sdk/tools/ba-elf-ba2-r36379/bin/../lib/gcc/ba-elf/4.7.4/../../../../ba-elf/lib/mcpu_jn51xx_sizeopt\libc.a(lib_a-memcmp.o)
 .debug_abbrev  0x000000000000008e       0xa4 c:/nxp/bstudio_nxp/sdk/tools/ba-elf-ba2-r36379/bin/../lib/gcc/ba-elf/4.7.4/../../../../ba-elf/lib/mcpu_jn51xx_sizeopt\libc.a(lib_a-memcpy.o)
 .debug_abbrev  0x0000000000000132       0x8e c:/nxp/bstudio_nxp/sdk/tools/ba-elf-ba2-r36379/bin/../lib/gcc/ba-elf/4.7.4/../../../../ba-elf/lib/mcpu_jn51xx_sizeopt\libc.a(lib_a-memset.o)
 .debug_abbrev  0x00000000000001c0       0x63 c:/nxp/bstudio_nxp/sdk/tools/ba-elf-ba2-r36379/bin/../lib/gcc/ba-elf/4.7.4/../../../../ba-elf/lib/mcpu_jn51xx_sizeopt\libc.a(lib_a-strcmp.o)
 .debug_abbrev  0x0000000000000223       0x72 c:/nxp/bstudio_nxp/sdk/tools/ba-elf-ba2-r36379/bin/../lib/gcc/ba-elf/4.7.4/../../../../ba-elf/lib/mcpu_jn51xx_sizeopt\libc.a(lib_a-strcpy.o)
 .debug_abbrev  0x0000000000000295       0x7f c:/nxp/bstudio_nxp/sdk/tools/ba-elf-ba2-r36379/bin/../lib/gcc/ba-elf/4.7.4/../../../../ba-elf/lib/mcpu_jn51xx_sizeopt\libc.a(lib_a-strlen.o)
 .debug_abbrev  0x0000000000000314       0x70 c:/nxp/bstudio_nxp/sdk/tools/ba-elf-ba2-r36379/bin/../lib/gcc/ba-elf/4.7.4/../../../../ba-elf/lib/mcpu_jn51xx_sizeopt\libc.a(lib_a-strncmp.o)
 .debug_abbrev  0x0000000000000384       0x14 c:/nxp/bstudio_nxp/sdk/tools/ba-elf-ba2-r36379/bin/../lib/gcc/ba-elf/4.7.4/mcpu_jn51xx_sizeopt\libgcc.a(__udivsi3.o)
 .debug_abbrev  0x0000000000000398       0x14 c:/nxp/bstudio_nxp/sdk/tools/ba-elf-ba2-r36379/bin/../lib/gcc/ba-elf/4.7.4/mcpu_jn51xx_sizeopt\libgcc.a(__umodsi3.o)
 .debug_abbrev  0x00000000000003ac       0x14 C:\nxp\bstudio_nxp\sdk\JN-SW-4163/Components/Library\libBoot_JN516x.a(ExceptionHandler.o)
 .debug_abbrev  0x00000000000003c0      0x1c0 c:/nxp/bstudio_nxp/sdk/tools/ba-elf-ba2-r36379/bin/../lib/gcc/ba-elf/4.7.4/../../../../ba-elf/lib/mcpu_jn51xx_sizeopt\libc.a(lib_a-strtok.o)
 .debug_abbrev  0x0000000000000580       0xef c:/nxp/bstudio_nxp/sdk/tools/ba-elf-ba2-r36379/bin/../lib/gcc/ba-elf/4.7.4/../../../../ba-elf/lib/mcpu_jn51xx_sizeopt\libc.a(lib_a-strtok_r.o)
 .debug_abbrev  0x000000000000066f      0x162 c:/nxp/bstudio_nxp/sdk/tools/ba-elf-ba2-r36379/bin/../lib/gcc/ba-elf/4.7.4/../../../../ba-elf/lib/mcpu_jn51xx_sizeopt\libc.a(lib_a-impure.o)

.debug_loc      0x0000000000000000      0x44c
 .debug_loc     0x0000000000000000       0x73 c:/nxp/bstudio_nxp/sdk/tools/ba-elf-ba2-r36379/bin/../lib/gcc/ba-elf/4.7.4/../../../../ba-elf/lib/mcpu_jn51xx_sizeopt\libc.a(lib_a-memcmp.o)
 .debug_loc     0x0000000000000073       0x39 c:/nxp/bstudio_nxp/sdk/tools/ba-elf-ba2-r36379/bin/../lib/gcc/ba-elf/4.7.4/../../../../ba-elf/lib/mcpu_jn51xx_sizeopt\libc.a(lib_a-memcpy.o)
 .debug_loc     0x00000000000000ac       0x3f c:/nxp/bstudio_nxp/sdk/tools/ba-elf-ba2-r36379/bin/../lib/gcc/ba-elf/4.7.4/../../../../ba-elf/lib/mcpu_jn51xx_sizeopt\libc.a(lib_a-memset.o)
 .debug_loc     0x00000000000000eb       0x3c c:/nxp/bstudio_nxp/sdk/tools/ba-elf-ba2-r36379/bin/../lib/gcc/ba-elf/4.7.4/../../../../ba-elf/lib/mcpu_jn51xx_sizeopt\libc.a(lib_a-strcmp.o)
 .debug_loc     0x0000000000000127       0x49 c:/nxp/bstudio_nxp/sdk/tools/ba-elf-ba2-r36379/bin/../lib/gcc/ba-elf/4.7.4/../../../../ba-elf/lib/mcpu_jn51xx_sizeopt\libc.a(lib_a-strcpy.o)
 .debug_loc     0x0000000000000170       0x3f c:/nxp/bstudio_nxp/sdk/tools/ba-elf-ba2-r36379/bin/../lib/gcc/ba-elf/4.7.4/../../../../ba-elf/lib/mcpu_jn51xx_sizeopt\libc.a(lib_a-strlen.o)
 .debug_loc     0x00000000000001af       0x5a c:/nxp/bstudio_nxp/sdk/tools/ba-elf-ba2-r36379/bin/../lib/gcc/ba-elf/4.7.4/../../../../ba-elf/lib/mcpu_jn51xx_sizeopt\libc.a(lib_a-strncmp.o)
 .debug_loc     0x0000000000000209       0x42 c:/nxp/bstudio_nxp/sdk/tools/ba-elf-ba2-r36379/bin/../lib/gcc/ba-elf/4.7.4/../../../../ba-elf/lib/mcpu_jn51xx_sizeopt\libc.a(lib_a-strtok.o)
 .debug_loc     0x000000000000024b      0x201 c:/nxp/bstudio_nxp/sdk/tools/ba-elf-ba2-r36379/bin/../lib/gcc/ba-elf/4.7.4/../../../../ba-elf/lib/mcpu_jn51xx_sizeopt\libc.a(lib_a-strtok_r.o)

.debug_aranges  0x0000000000000000      0x198
 .debug_aranges
                0x0000000000000000       0x20 c:/nxp/bstudio_nxp/sdk/tools/ba-elf-ba2-r36379/bin/../lib/gcc/ba-elf/4.7.4/../../../../ba-elf/lib/mcpu_jn51xx_sizeopt\libc.a(lib_a-memcmp.o)
 .debug_aranges
                0x0000000000000020       0x20 c:/nxp/bstudio_nxp/sdk/tools/ba-elf-ba2-r36379/bin/../lib/gcc/ba-elf/4.7.4/../../../../ba-elf/lib/mcpu_jn51xx_sizeopt\libc.a(lib_a-memcpy.o)
 .debug_aranges
                0x0000000000000040       0x20 c:/nxp/bstudio_nxp/sdk/tools/ba-elf-ba2-r36379/bin/../lib/gcc/ba-elf/4.7.4/../../../../ba-elf/lib/mcpu_jn51xx_sizeopt\libc.a(lib_a-memset.o)
 .debug_aranges
                0x0000000000000060       0x20 c:/nxp/bstudio_nxp/sdk/tools/ba-elf-ba2-r36379/bin/../lib/gcc/ba-elf/4.7.4/../../../../ba-elf/lib/mcpu_jn51xx_sizeopt\libc.a(lib_a-strcmp.o)
 .debug_aranges
                0x0000000000000080       0x20 c:/nxp/bstudio_nxp/sdk/tools/ba-elf-ba2-r36379/bin/../lib/gcc/ba-elf/4.7.4/../../../../ba-elf/lib/mcpu_jn51xx_sizeopt\libc.a(lib_a-strcpy.o)
 .debug_aranges
                0x00000000000000a0       0x20 c:/nxp/bstudio_nxp/sdk/tools/ba-elf-ba2-r36379/bin/../lib/gcc/ba-elf/4.7.4/../../../../ba-elf/lib/mcpu_jn51xx_sizeopt\libc.a(lib_a-strlen.o)
 .debug_aranges
                0x00000000000000c0       0x20 c:/nxp/bstudio_nxp/sdk/tools/ba-elf-ba2-r36379/bin/../lib/gcc/ba-elf/4.7.4/../../../../ba-elf/lib/mcpu_jn51xx_sizeopt\libc.a(lib_a-strncmp.o)
 .debug_aranges
                0x00000000000000e0       0x20 c:/nxp/bstudio_nxp/sdk/tools/ba-elf-ba2-r36379/bin/../lib/gcc/ba-elf/4.7.4/mcpu_jn51xx_sizeopt\libgcc.a(__udivsi3.o)
 .debug_aranges
                0x0000000000000100       0x20 c:/nxp/bstudio_nxp/sdk/tools/ba-elf-ba2-r36379/bin/../lib/gcc/ba-elf/4.7.4/mcpu_jn51xx_sizeopt\libgcc.a(__umodsi3.o)
 .debug_aranges
                0x0000000000000120       0x20 C:\nxp\bstudio_nxp\sdk\JN-SW-4163/Components/Library\libBoot_JN516x.a(ExceptionHandler.o)
 .debug_aranges
                0x0000000000000140       0x20 c:/nxp/bstudio_nxp/sdk/tools/ba-elf-ba2-r36379/bin/../lib/gcc/ba-elf/4.7.4/../../../../ba-elf/lib/mcpu_jn51xx_sizeopt\libc.a(lib_a-strtok.o)
 .debug_aranges
                0x0000000000000160       0x20 c:/nxp/bstudio_nxp/sdk/tools/ba-elf-ba2-r36379/bin/../lib/gcc/ba-elf/4.7.4/../../../../ba-elf/lib/mcpu_jn51xx_sizeopt\libc.a(lib_a-strtok_r.o)
 .debug_aranges
                0x0000000000000180       0x18 c:/nxp/bstudio_nxp/sdk/tools/ba-elf-ba2-r36379/bin/../lib/gcc/ba-elf/4.7.4/../../../../ba-elf/lib/mcpu_jn51xx_sizeopt\libc.a(lib_a-impure.o)

.debug_line     0x0000000000000000     0x1617
 .debug_line    0x0000000000000000      0x154 c:/nxp/bstudio_nxp/sdk/tools/ba-elf-ba2-r36379/bin/../lib/gcc/ba-elf/4.7.4/../../../../ba-elf/lib/mcpu_jn51xx_sizeopt\libc.a(lib_a-memcmp.o)
 .debug_line    0x0000000000000154      0x148 c:/nxp/bstudio_nxp/sdk/tools/ba-elf-ba2-r36379/bin/../lib/gcc/ba-elf/4.7.4/../../../../ba-elf/lib/mcpu_jn51xx_sizeopt\libc.a(lib_a-memcpy.o)
 .debug_line    0x000000000000029c      0x13e c:/nxp/bstudio_nxp/sdk/tools/ba-elf-ba2-r36379/bin/../lib/gcc/ba-elf/4.7.4/../../../../ba-elf/lib/mcpu_jn51xx_sizeopt\libc.a(lib_a-memset.o)
 .debug_line    0x00000000000003da       0xf6 c:/nxp/bstudio_nxp/sdk/tools/ba-elf-ba2-r36379/bin/../lib/gcc/ba-elf/4.7.4/../../../../ba-elf/lib/mcpu_jn51xx_sizeopt\libc.a(lib_a-strcmp.o)
 .debug_line    0x00000000000004d0       0xda c:/nxp/bstudio_nxp/sdk/tools/ba-elf-ba2-r36379/bin/../lib/gcc/ba-elf/4.7.4/../../../../ba-elf/lib/mcpu_jn51xx_sizeopt\libc.a(lib_a-strcpy.o)
 .debug_line    0x00000000000005aa      0x12e c:/nxp/bstudio_nxp/sdk/tools/ba-elf-ba2-r36379/bin/../lib/gcc/ba-elf/4.7.4/../../../../ba-elf/lib/mcpu_jn51xx_sizeopt\libc.a(lib_a-strlen.o)
 .debug_line    0x00000000000006d8      0x160 c:/nxp/bstudio_nxp/sdk/tools/ba-elf-ba2-r36379/bin/../lib/gcc/ba-elf/4.7.4/../../../../ba-elf/lib/mcpu_jn51xx_sizeopt\libc.a(lib_a-strncmp.o)
 .debug_line    0x0000000000000838      0x47b c:/nxp/bstudio_nxp/sdk/tools/ba-elf-ba2-r36379/bin/../lib/gcc/ba-elf/4.7.4/mcpu_jn51xx_sizeopt\libgcc.a(__udivsi3.o)
 .debug_line    0x0000000000000cb3      0x3c7 c:/nxp/bstudio_nxp/sdk/tools/ba-elf-ba2-r36379/bin/../lib/gcc/ba-elf/4.7.4/mcpu_jn51xx_sizeopt\libgcc.a(__umodsi3.o)
 .debug_line    0x000000000000107a      0x197 C:\nxp\bstudio_nxp\sdk\JN-SW-4163/Components/Library\libBoot_JN516x.a(ExceptionHandler.o)
 .debug_line    0x0000000000001211      0x182 c:/nxp/bstudio_nxp/sdk/tools/ba-elf-ba2-r36379/bin/../lib/gcc/ba-elf/4.7.4/../../../../ba-elf/lib/mcpu_jn51xx_sizeopt\libc.a(lib_a-strtok.o)
 .debug_line    0x0000000000001393      0x16a c:/nxp/bstudio_nxp/sdk/tools/ba-elf-ba2-r36379/bin/../lib/gcc/ba-elf/4.7.4/../../../../ba-elf/lib/mcpu_jn51xx_sizeopt\libc.a(lib_a-strtok_r.o)
 .debug_line    0x00000000000014fd      0x11a c:/nxp/bstudio_nxp/sdk/tools/ba-elf-ba2-r36379/bin/../lib/gcc/ba-elf/4.7.4/../../../../ba-elf/lib/mcpu_jn51xx_sizeopt\libc.a(lib_a-impure.o)

.debug_str      0x0000000000000000      0x80d
 .debug_str     0x0000000000000000       0x50 c:/nxp/bstudio_nxp/sdk/tools/ba-elf-ba2-r36379/bin/../lib/gcc/ba-elf/4.7.4/../../../../ba-elf/lib/mcpu_jn51xx_sizeopt\libc.a(lib_a-memcmp.o)
                                        0x152 (size before relaxing)
 .debug_str     0x0000000000000050       0x5d c:/nxp/bstudio_nxp/sdk/tools/ba-elf-ba2-r36379/bin/../lib/gcc/ba-elf/4.7.4/../../../../ba-elf/lib/mcpu_jn51xx_sizeopt\libc.a(lib_a-memcpy.o)
                                        0x166 (size before relaxing)
 .debug_str     0x00000000000000ad       0x49 c:/nxp/bstudio_nxp/sdk/tools/ba-elf-ba2-r36379/bin/../lib/gcc/ba-elf/4.7.4/../../../../ba-elf/lib/mcpu_jn51xx_sizeopt\libc.a(lib_a-memset.o)
                                        0x152 (size before relaxing)
 .debug_str     0x00000000000000f6       0x49 c:/nxp/bstudio_nxp/sdk/tools/ba-elf-ba2-r36379/bin/../lib/gcc/ba-elf/4.7.4/../../../../ba-elf/lib/mcpu_jn51xx_sizeopt\libc.a(lib_a-strcmp.o)
                                        0x14b (size before relaxing)
 .debug_str     0x000000000000013f       0x49 c:/nxp/bstudio_nxp/sdk/tools/ba-elf-ba2-r36379/bin/../lib/gcc/ba-elf/4.7.4/../../../../ba-elf/lib/mcpu_jn51xx_sizeopt\libc.a(lib_a-strcpy.o)
                                        0x155 (size before relaxing)
 .debug_str     0x0000000000000188       0x4f c:/nxp/bstudio_nxp/sdk/tools/ba-elf-ba2-r36379/bin/../lib/gcc/ba-elf/4.7.4/../../../../ba-elf/lib/mcpu_jn51xx_sizeopt\libc.a(lib_a-strlen.o)
                                        0x158 (size before relaxing)
 .debug_str     0x00000000000001d7       0x4b c:/nxp/bstudio_nxp/sdk/tools/ba-elf-ba2-r36379/bin/../lib/gcc/ba-elf/4.7.4/../../../../ba-elf/lib/mcpu_jn51xx_sizeopt\libc.a(lib_a-strncmp.o)
                                        0x154 (size before relaxing)
 .debug_str     0x0000000000000222      0x4c0 c:/nxp/bstudio_nxp/sdk/tools/ba-elf-ba2-r36379/bin/../lib/gcc/ba-elf/4.7.4/../../../../ba-elf/lib/mcpu_jn51xx_sizeopt\libc.a(lib_a-strtok.o)
                                        0x51e (size before relaxing)
 .debug_str     0x00000000000006e2       0x68 c:/nxp/bstudio_nxp/sdk/tools/ba-elf-ba2-r36379/bin/../lib/gcc/ba-elf/4.7.4/../../../../ba-elf/lib/mcpu_jn51xx_sizeopt\libc.a(lib_a-strtok_r.o)
                                        0x184 (size before relaxing)
 .debug_str     0x000000000000074a       0xc3 c:/nxp/bstudio_nxp/sdk/tools/ba-elf-ba2-r36379/bin/../lib/gcc/ba-elf/4.7.4/../../../../ba-elf/lib/mcpu_jn51xx_sizeopt\libc.a(lib_a-impure.o)
                                        0x523 (size before relaxing)

.debug_frame    0x0000000000000000      0x13c
 .debug_frame   0x0000000000000000       0x20 c:/nxp/bstudio_nxp/sdk/tools/ba-elf-ba2-r36379/bin/../lib/gcc/ba-elf/4.7.4/../../../../ba-elf/lib/mcpu_jn51xx_sizeopt\libc.a(lib_a-memcmp.o)
 .debug_frame   0x0000000000000020       0x20 c:/nxp/bstudio_nxp/sdk/tools/ba-elf-ba2-r36379/bin/../lib/gcc/ba-elf/4.7.4/../../../../ba-elf/lib/mcpu_jn51xx_sizeopt\libc.a(lib_a-memcpy.o)
 .debug_frame   0x0000000000000040       0x20 c:/nxp/bstudio_nxp/sdk/tools/ba-elf-ba2-r36379/bin/../lib/gcc/ba-elf/4.7.4/../../../../ba-elf/lib/mcpu_jn51xx_sizeopt\libc.a(lib_a-memset.o)
 .debug_frame   0x0000000000000060       0x20 c:/nxp/bstudio_nxp/sdk/tools/ba-elf-ba2-r36379/bin/../lib/gcc/ba-elf/4.7.4/../../../../ba-elf/lib/mcpu_jn51xx_sizeopt\libc.a(lib_a-strcmp.o)
 .debug_frame   0x0000000000000080       0x20 c:/nxp/bstudio_nxp/sdk/tools/ba-elf-ba2-r36379/bin/../lib/gcc/ba-elf/4.7.4/../../../../ba-elf/lib/mcpu_jn51xx_sizeopt\libc.a(lib_a-strcpy.o)
 .debug_frame   0x00000000000000a0       0x20 c:/nxp/bstudio_nxp/sdk/tools/ba-elf-ba2-r36379/bin/../lib/gcc/ba-elf/4.7.4/../../../../ba-elf/lib/mcpu_jn51xx_sizeopt\libc.a(lib_a-strlen.o)
 .debug_frame   0x00000000000000c0       0x20 c:/nxp/bstudio_nxp/sdk/tools/ba-elf-ba2-r36379/bin/../lib/gcc/ba-elf/4.7.4/../../../../ba-elf/lib/mcpu_jn51xx_sizeopt\libc.a(lib_a-strncmp.o)
 .debug_frame   0x00000000000000e0       0x20 c:/nxp/bstudio_nxp/sdk/tools/ba-elf-ba2-r36379/bin/../lib/gcc/ba-elf/4.7.4/../../../../ba-elf/lib/mcpu_jn51xx_sizeopt\libc.a(lib_a-strtok.o)
 .debug_frame   0x0000000000000100       0x3c c:/nxp/bstudio_nxp/sdk/tools/ba-elf-ba2-r36379/bin/../lib/gcc/ba-elf/4.7.4/../../../../ba-elf/lib/mcpu_jn51xx_sizeopt\libc.a(lib_a-strtok_r.o)
